(lp0
(dp1
S'graph'
p2
(dp3
S'nodes'
p4
(lp5
(dp6
S'name'
p7
S'0'
p8
sS'value'
p9
S'1'
p10
sa(dp11
g7
g10
sg9
S'2'
p12
sa(dp13
g7
g12
sg9
g12
sa(dp14
g7
S'3'
p15
sg9
S'7'
p16
sasS'links'
p17
(lp18
(dp19
S'source'
p20
g8
sS'target'
p21
g15
sa(dp22
g20
g10
sg21
g12
sa(dp23
g20
g10
sg21
g15
sa(dp24
g20
g12
sg21
g15
sassS'graph_id'
p25
g8
sS'string'
p26
S'C1C[Na]=1.N'
p27
sa(dp28
g2
(dp29
g4
(lp30
(dp31
g7
g8
sg9
g8
sa(dp32
g7
g10
sg9
g10
sa(dp33
g7
g12
sg9
g12
sa(dp34
g7
g15
sg9
S'5'
p35
sa(dp36
g7
S'4'
p37
sg9
g35
sasg17
(lp38
(dp39
g20
g8
sg21
g10
sa(dp40
g20
g8
sg21
g12
sa(dp41
g20
g10
sg21
g12
sa(dp42
g20
g10
sg21
g15
sa(dp43
g20
g12
sg21
g37
sassg25
g10
sg26
S'O=C(Cl)NCl'
p44
sa(dp45
g2
(dp46
g4
(lp47
(dp48
g7
g8
sg9
g8
sa(dp49
g7
g10
sg9
g10
sa(dp50
g7
g12
sg9
g8
sa(dp51
g7
g15
sg9
g12
sa(dp52
g7
g37
sg9
g35
sasg17
(lp53
(dp54
g20
g8
sg21
g10
sa(dp55
g20
g10
sg21
g12
sa(dp56
g20
g10
sg21
g15
sa(dp57
g20
g15
sg21
g37
sassg25
g12
sg26
S'O.ONCCl'
p58
sa(dp59
g2
(dp60
g4
(lp61
(dp62
g7
g8
sg9
g8
sa(dp63
g7
g10
sg9
g10
sa(dp64
g7
g12
sg9
g12
sa(dp65
g7
g15
sg9
g12
sasg17
(lp66
(dp67
g20
g8
sg21
g10
sa(dp68
g20
g8
sg21
g12
sa(dp69
g20
g8
sg21
g15
sa(dp70
g20
g10
sg21
g12
sa(dp71
g20
g10
sg21
g15
sassg25
g15
sg26
S'C1N2CO=21'
p72
sa(dp73
g2
(dp74
g4
(lp75
(dp76
g7
g8
sg9
g10
sa(dp77
g7
g10
sg9
g12
sa(dp78
g7
g12
sg9
g15
sa(dp79
g7
g15
sg9
S'6'
p80
sa(dp81
g7
g37
sg9
g15
sasg17
(lp82
(dp83
g20
g8
sg21
g12
sa(dp84
g20
g10
sg21
g12
sa(dp85
g20
g10
sg21
g15
sa(dp86
g20
g10
sg21
g37
sa(dp87
g20
g12
sg21
g15
sassg25
g37
sg26
S'NBr=C(F)=Br'
p88
sa(dp89
g2
(dp90
g4
(lp91
(dp92
g7
g8
sg9
g8
sa(dp93
g7
g10
sg9
g10
sa(dp94
g7
g12
sg9
g12
sa(dp95
g7
g15
sg9
g12
sa(dp96
g7
g37
sg9
g16
sasg17
(lp97
(dp98
g20
g8
sg21
g10
sa(dp99
g20
g8
sg21
g12
sa(dp100
g20
g10
sg21
g12
sa(dp101
g20
g12
sg21
g15
sa(dp102
g20
g12
sg21
g37
sa(dp103
g20
g15
sg21
g37
sassg25
g35
sg26
S'C1[Na]=C12N=O2'
p104
sa(dp105
g2
(dp106
g4
(lp107
(dp108
g7
g8
sg9
g10
sa(dp109
g7
g10
sg9
g12
sa(dp110
g7
g12
sg9
g12
sa(dp111
g7
g15
sg9
g15
sa(dp112
g7
g37
sg9
g80
sa(dp113
g7
g35
sg9
g8
sasg17
(lp114
(dp115
g20
g8
sg21
g10
sa(dp116
g20
g8
sg21
g12
sa(dp117
g20
g8
sg21
g15
sa(dp118
g20
g8
sg21
g35
sa(dp119
g20
g12
sg21
g15
sa(dp120
g20
g12
sg21
g35
sa(dp121
g20
g15
sg21
g37
sassg25
g80
sg26
S'CN1=OC=Br1.F'
p122
sa(dp123
g2
(dp124
g4
(lp125
(dp126
g7
g8
sg9
g10
sa(dp127
g7
g10
sg9
g12
sa(dp128
g7
g12
sg9
g15
sa(dp129
g7
g15
sg9
g80
sasg17
(lp130
(dp131
g20
g8
sg21
g12
sa(dp132
g20
g8
sg21
g15
sa(dp133
g20
g10
sg21
g12
sa(dp134
g20
g12
sg21
g15
sassg25
g16
sg26
S'C=BrNF'
p135
sa(dp136
g2
(dp137
g4
(lp138
(dp139
g7
g8
sg9
g8
sa(dp140
g7
g10
sg9
g10
sa(dp141
g7
g12
sg9
g10
sasg17
(lp142
(dp143
g20
g8
sg21
g10
sa(dp144
g20
g8
sg21
g12
sassg25
S'8'
p145
sg26
S'N.NO'
p146
sa(dp147
g2
(dp148
g4
(lp149
(dp150
g7
g8
sg9
g12
sa(dp151
g7
g10
sg9
g12
sa(dp152
g7
g12
sg9
g16
sasg17
(lp153
(dp154
g20
g8
sg21
g10
sa(dp155
g20
g8
sg21
g12
sa(dp156
g20
g10
sg21
g12
sassg25
S'9'
p157
sg26
S'C1C[Na]=1'
p158
sa.