(lp0
(dp1
S'cs'
p2
S'0.9'
p3
sS'graphs'
p4
(lp5
(dp6
S'graph'
p7
(dp8
S'nodes'
p9
(lp10
(dp11
S'name'
p12
S'0'
p13
sS'value'
p14
S'1'
p15
sa(dp16
g12
S'1'
p17
sg14
S'3'
p18
sasS'links'
p19
(lp20
(dp21
S'source'
p22
g13
sS'target'
p23
g17
sassS'support'
p24
S'3'
p25
sS'gid'
p26
S'10'
p27
sa(dp28
g7
(dp29
g9
(lp30
(dp31
g12
g13
sg14
S'2'
p32
sa(dp33
g12
g17
sg14
S'7'
p34
sasg19
(lp35
(dp36
g22
g13
sg23
g17
sassg24
g25
sg26
S'16'
p37
sa(dp38
g7
(dp39
g9
(lp40
(dp41
g12
g13
sg14
S'0'
p42
sa(dp43
g12
g17
sg14
S'1'
p44
sasg19
(lp45
(dp46
g22
g13
sg23
g17
sassg24
g25
sg26
S'4'
p47
sasS'or'
p48
S'0.0'
p49
sS'size'
p50
I3
sa(dp51
g2
S'0.9'
p52
sg4
(lp53
g6
a(dp54
g7
(dp55
g9
(lp56
(dp57
g12
g13
sg14
S'2'
p58
sa(dp59
g12
g17
sg14
S'2'
p60
sasg19
(lp61
(dp62
g22
g13
sg23
g17
sassg24
g25
sg26
S'17'
p63
sag38
asg48
S'0.0'
p64
sg50
I3
sa(dp65
g2
S'0.9'
p66
sg4
(lp67
g6
a(dp68
g7
(dp69
g9
(lp70
(dp71
g12
g13
sg14
S'2'
p72
sa(dp73
g12
g17
sg14
S'2'
p74
sa(dp75
g12
S'2'
p76
sg14
S'7'
p77
sasg19
(lp78
(dp79
g22
g13
sg23
g17
sa(dp80
g22
g17
sg23
g76
sassg24
g25
sg26
S'18'
p81
sag38
asg48
S'0.0'
p82
sg50
I3
sa(dp83
g2
S'0.9'
p84
sg4
(lp85
g6
a(dp86
g7
(dp87
g9
(lp88
(dp89
g12
g13
sg14
S'2'
p90
sa(dp91
g12
g17
sg14
S'2'
p92
sa(dp93
g12
g76
sg14
S'7'
p94
sasg19
(lp95
(dp96
g22
g13
sg23
g17
sa(dp97
g22
g17
sg23
g76
sassg24
g25
sg26
S'19'
p98
sag38
asg48
S'0.0'
p99
sg50
I3
sa(dp100
g2
S'0.9'
p101
sg4
(lp102
g6
a(dp103
g7
(dp104
g9
(lp105
(dp106
g12
g13
sg14
S'2'
p107
sa(dp108
g12
g17
sg14
S'2'
p109
sa(dp110
g12
g76
sg14
S'7'
p111
sasg19
(lp112
(dp113
g22
g13
sg23
g17
sa(dp114
g22
g13
sg23
g76
sa(dp115
g22
g17
sg23
g76
sassg24
g25
sg26
S'20'
p116
sag38
asg48
S'0.0'
p117
sg50
I3
sa(dp118
g2
S'0.9'
p119
sg4
(lp120
g6
ag38
a(dp121
g7
(dp122
g9
(lp123
(dp124
g12
g13
sg14
S'2'
p125
sa(dp126
g12
g17
sg14
S'7'
p127
sasg19
(lp128
(dp129
g22
g13
sg23
g17
sassg24
g25
sg26
S'7'
p130
sasg48
S'0.0'
p131
sg50
I3
sa(dp132
g2
S'0.9'
p133
sg4
(lp134
g6
ag38
a(dp135
g7
(dp136
g9
(lp137
(dp138
g12
g13
sg14
S'2'
p139
sa(dp140
g12
g17
sg14
S'7'
p141
sa(dp142
g12
g76
sg14
S'2'
p143
sasg19
(lp144
(dp145
g22
g13
sg23
g17
sa(dp146
g22
g17
sg23
g76
sassg24
g25
sg26
S'8'
p147
sasg48
S'0.0'
p148
sg50
I3
sa(dp149
g2
S'0.9'
p150
sg4
(lp151
(dp152
g7
(dp153
g9
(lp154
(dp155
g12
g13
sg14
S'1'
p156
sa(dp157
g12
g17
sg14
S'3'
p158
sa(dp159
g12
g76
sg14
S'6'
p160
sasg19
(lp161
(dp162
g22
g13
sg23
g17
sa(dp163
g22
g17
sg23
g76
sassg24
g25
sg26
S'11'
p164
sag28
ag38
asg48
S'0.0'
p165
sg50
I3
sa(dp166
g2
S'0.9'
p167
sg4
(lp168
g152
ag54
ag38
asg48
S'0.0'
p169
sg50
I3
sa(dp170
g2
S'0.9'
p171
sg4
(lp172
g152
ag68
ag38
asg48
S'0.0'
p173
sg50
I3
sa(dp174
g2
S'0.9'
p175
sg4
(lp176
g152
ag86
ag38
asg48
S'0.0'
p177
sg50
I3
sa(dp178
g2
S'0.9'
p179
sg4
(lp180
g152
ag103
ag38
asg48
S'0.0'
p181
sg50
I3
sa(dp182
g2
S'0.9'
p183
sg4
(lp184
g152
ag38
ag121
asg48
S'0.0'
p185
sg50
I3
sa(dp186
g2
S'0.9'
p187
sg4
(lp188
g152
ag38
ag135
asg48
S'0.0'
p189
sg50
I3
sa(dp190
g2
S'0.9'
p191
sg4
(lp192
(dp193
g7
(dp194
g9
(lp195
(dp196
g12
g13
sg14
S'1'
p197
sa(dp198
g12
g17
sg14
S'3'
p199
sa(dp200
g12
g76
sg14
S'2'
p201
sasg19
(lp202
(dp203
g22
g13
sg23
g17
sa(dp204
g22
g17
sg23
g76
sassg24
g25
sg26
S'12'
p205
sag28
ag38
asg48
S'0.0'
p206
sg50
I3
sa(dp207
g2
S'0.9'
p208
sg4
(lp209
g193
ag54
ag38
asg48
S'0.0'
p210
sg50
I3
sa(dp211
g2
S'0.9'
p212
sg4
(lp213
g193
ag68
ag38
asg48
S'0.0'
p214
sg50
I3
sa(dp215
g2
S'0.9'
p216
sg4
(lp217
g193
ag86
ag38
asg48
S'0.0'
p218
sg50
I3
sa(dp219
g2
S'0.9'
p220
sg4
(lp221
g193
ag103
ag38
asg48
S'0.0'
p222
sg50
I3
sa(dp223
g2
S'0.9'
p224
sg4
(lp225
g193
ag38
ag121
asg48
S'0.0'
p226
sg50
I3
sa(dp227
g2
S'0.9'
p228
sg4
(lp229
g193
ag38
ag135
asg48
S'0.0'
p230
sg50
I3
sa(dp231
g2
S'0.9'
p232
sg4
(lp233
(dp234
g7
(dp235
g9
(lp236
(dp237
g12
g13
sg14
S'1'
p238
sa(dp239
g12
g17
sg14
S'3'
p240
sa(dp241
g12
g76
sg14
S'2'
p242
sa(dp243
g12
g25
sg14
S'6'
p244
sasg19
(lp245
(dp246
g22
g13
sg23
g17
sa(dp247
g22
g17
sg23
g76
sa(dp248
g22
g17
sg23
g25
sassg24
g25
sg26
S'13'
p249
sag28
ag38
asg48
S'0.0'
p250
sg50
I3
sa(dp251
g2
S'0.9'
p252
sg4
(lp253
g234
ag54
ag38
asg48
S'0.0'
p254
sg50
I3
sa(dp255
g2
S'0.9'
p256
sg4
(lp257
g234
ag68
ag38
asg48
S'0.0'
p258
sg50
I3
sa(dp259
g2
S'0.9'
p260
sg4
(lp261
g234
ag86
ag38
asg48
S'0.0'
p262
sg50
I3
sa(dp263
g2
S'0.9'
p264
sg4
(lp265
g234
ag103
ag38
asg48
S'0.0'
p266
sg50
I3
sa(dp267
g2
S'0.9'
p268
sg4
(lp269
g234
ag38
ag121
asg48
S'0.0'
p270
sg50
I3
sa(dp271
g2
S'0.9'
p272
sg4
(lp273
g234
ag38
ag135
asg48
S'0.0'
p274
sg50
I3
sa(dp275
g2
S'0.9'
p276
sg4
(lp277
g28
a(dp278
g7
(dp279
g9
(lp280
(dp281
g12
g13
sg14
S'3'
p282
sa(dp283
g12
g17
sg14
S'6'
p284
sasg19
(lp285
(dp286
g22
g13
sg23
g17
sassg24
g25
sg26
g25
sag38
asg48
S'0.0'
p287
sg50
I3
sa(dp288
g2
S'0.9'
p289
sg4
(lp290
g28
ag38
a(dp291
g7
(dp292
g9
(lp293
(dp294
g12
g13
sg14
S'2'
p295
sa(dp296
g12
g17
sg14
S'3'
p297
sasg19
(lp298
(dp299
g22
g13
sg23
g17
sassg24
g25
sg26
S'5'
p300
sasg48
S'0.0'
p301
sg50
I3
sa(dp302
g2
S'0.9'
p303
sg4
(lp304
g28
ag38
a(dp305
g7
(dp306
g9
(lp307
(dp308
g12
g13
sg14
S'2'
p309
sa(dp310
g12
g17
sg14
S'3'
p311
sa(dp312
g12
g76
sg14
S'6'
p313
sasg19
(lp314
(dp315
g22
g13
sg23
g17
sa(dp316
g22
g17
sg23
g76
sassg24
g25
sg26
S'6'
p317
sasg48
S'0.0'
p318
sg50
I3
sa(dp319
g2
S'0.9'
p320
sg4
(lp321
g54
ag278
ag38
asg48
S'0.0'
p322
sg50
I3
sa(dp323
g2
S'0.9'
p324
sg4
(lp325
g54
ag38
ag291
asg48
S'0.0'
p326
sg50
I3
sa(dp327
g2
S'0.9'
p328
sg4
(lp329
g54
ag38
ag305
asg48
S'0.0'
p330
sg50
I3
sa(dp331
g2
S'0.9'
p332
sg4
(lp333
g68
ag278
ag38
asg48
S'0.0'
p334
sg50
I3
sa(dp335
g2
S'0.9'
p336
sg4
(lp337
g68
ag38
ag291
asg48
S'0.0'
p338
sg50
I3
sa(dp339
g2
S'0.9'
p340
sg4
(lp341
g68
ag38
ag305
asg48
S'0.0'
p342
sg50
I3
sa(dp343
g2
S'0.9'
p344
sg4
(lp345
g86
ag278
ag38
asg48
S'0.0'
p346
sg50
I3
sa(dp347
g2
S'0.9'
p348
sg4
(lp349
g86
ag38
ag291
asg48
S'0.0'
p350
sg50
I3
sa(dp351
g2
S'0.9'
p352
sg4
(lp353
g86
ag38
ag305
asg48
S'0.0'
p354
sg50
I3
sa(dp355
g2
S'0.9'
p356
sg4
(lp357
g103
ag278
ag38
asg48
S'0.0'
p358
sg50
I3
sa(dp359
g2
S'0.9'
p360
sg4
(lp361
g103
ag38
ag291
asg48
S'0.0'
p362
sg50
I3
sa(dp363
g2
S'0.9'
p364
sg4
(lp365
g103
ag38
ag305
asg48
S'0.0'
p366
sg50
I3
sa(dp367
g2
S'0.9'
p368
sg4
(lp369
g278
ag38
ag121
asg48
S'0.0'
p370
sg50
I3
sa(dp371
g2
S'0.9'
p372
sg4
(lp373
g278
ag38
ag135
asg48
S'0.0'
p374
sg50
I3
sa(dp375
g2
S'0.9'
p376
sg4
(lp377
g38
ag291
ag121
asg48
S'0.0'
p378
sg50
I3
sa(dp379
g2
S'0.9'
p380
sg4
(lp381
g38
ag291
ag135
asg48
S'0.0'
p382
sg50
I3
sa(dp383
g2
S'0.9'
p384
sg4
(lp385
g38
ag305
ag121
asg48
S'0.0'
p386
sg50
I3
sa(dp387
g2
S'0.9'
p388
sg4
(lp389
g38
ag305
ag135
asg48
S'0.0'
p390
sg50
I3
sa.