(lp0
(dp1
S'graph'
p2
(dp3
S'nodes'
p4
(lp5
(dp6
S'name'
p7
S'0'
p8
sS'value'
p9
g8
sS'title'
p10
S'hi'
p11
sa(dp12
g7
S'1'
p13
sg9
g13
sg10
g11
sasS'links'
p14
(lp15
(dp16
S'source'
p17
g8
sS'target'
p18
g13
sassS'support'
p19
S'3'
p20
sS'gid'
p21
g13
sS'string'
p22
S'N=O'
p23
sS'smile_graph_image'
p24
S'PD94bWwgdmVyc2lvbj0iMS4wIiBlbmNvZGluZz0iVVRGLTgiPz4KPHN2ZyB4bWxucz0iaHR0cDovL3d3dy53My5vcmcvMjAwMC9zdmciIHhtbG5zOnhsaW5rPSJodHRwOi8vd3d3LnczLm9yZy8xOTk5L3hsaW5rIiB3aWR0aD0iMzAwcHQiIGhlaWdodD0iMzAwcHQiIHZpZXdCb3g9IjAgMCAzMDAgMzAwIiB2ZXJzaW9uPSIxLjEiPgo8ZGVmcz4KPGc+CjxzeW1ib2wgb3ZlcmZsb3c9InZpc2libGUiIGlkPSJnbHlwaDAtMCI+CjxwYXRoIHN0eWxlPSJzdHJva2U6bm9uZTsiIGQ9Ik0gMC41OTM3NSAyLjEyNSBMIDAuNTkzNzUgLTguNDY4NzUgTCA2LjU5Mzc1IC04LjQ2ODc1IEwgNi41OTM3NSAyLjEyNSBaIE0gMS4yNjU2MjUgMS40NTMxMjUgTCA1LjkzNzUgMS40NTMxMjUgTCA1LjkzNzUgLTcuNzgxMjUgTCAxLjI2NTYyNSAtNy43ODEyNSBaIE0gMS4yNjU2MjUgMS40NTMxMjUgIi8+Cjwvc3ltYm9sPgo8c3ltYm9sIG92ZXJmbG93PSJ2aXNpYmxlIiBpZD0iZ2x5cGgwLTEiPgo8cGF0aCBzdHlsZT0ic3Ryb2tlOm5vbmU7IiBkPSJNIDEuMTcxODc1IC04Ljc1IEwgMi4zNTkzNzUgLTguNzUgTCAyLjM1OTM3NSAtNS4xNTYyNSBMIDYuNjU2MjUgLTUuMTU2MjUgTCA2LjY1NjI1IC04Ljc1IEwgNy44NDM3NSAtOC43NSBMIDcuODQzNzUgMCBMIDYuNjU2MjUgMCBMIDYuNjU2MjUgLTQuMTcxODc1IEwgMi4zNTkzNzUgLTQuMTcxODc1IEwgMi4zNTkzNzUgMCBMIDEuMTcxODc1IDAgWiBNIDEuMTcxODc1IC04Ljc1ICIvPgo8L3N5bWJvbD4KPHN5bWJvbCBvdmVyZmxvdz0idmlzaWJsZSIgaWQ9ImdseXBoMC0yIj4KPHBhdGggc3R5bGU9InN0cm9rZTpub25lOyIgZD0iTSA0LjczNDM3NSAtNy45NTMxMjUgQyAzLjg2NzE4OCAtNy45NTMxMjUgMy4xNzk2ODggLTcuNjI4OTA2IDIuNjcxODc1IC02Ljk4NDM3NSBDIDIuMTcxODc1IC02LjM0NzY1NiAxLjkyMTg3NSAtNS40NzI2NTYgMS45MjE4NzUgLTQuMzU5Mzc1IEMgMS45MjE4NzUgLTMuMjY1NjI1IDIuMTcxODc1IC0yLjM5NDUzMSAyLjY3MTg3NSAtMS43NSBDIDMuMTc5Njg4IC0xLjExMzI4MSAzLjg2NzE4OCAtMC43OTY4NzUgNC43MzQzNzUgLTAuNzk2ODc1IEMgNS41ODU5MzggLTAuNzk2ODc1IDYuMjY1NjI1IC0xLjExMzI4MSA2Ljc2NTYyNSAtMS43NSBDIDcuMjczNDM4IC0yLjM5NDUzMSA3LjUzMTI1IC0zLjI2NTYyNSA3LjUzMTI1IC00LjM1OTM3NSBDIDcuNTMxMjUgLTUuNDcyNjU2IDcuMjczNDM4IC02LjM0NzY1NiA2Ljc2NTYyNSAtNi45ODQzNzUgQyA2LjI2NTYyNSAtNy42Mjg5MDYgNS41ODU5MzggLTcuOTUzMTI1IDQuNzM0Mzc1IC03Ljk1MzEyNSBaIE0gNC43MzQzNzUgLTguOTA2MjUgQyA1Ljk1MzEyNSAtOC45MDYyNSA2LjkyNTc4MSAtOC40OTIxODggNy42NTYyNSAtNy42NzE4NzUgQyA4LjM5NDUzMSAtNi44NDc2NTYgOC43NjU2MjUgLTUuNzQyMTg4IDguNzY1NjI1IC00LjM1OTM3NSBDIDguNzY1NjI1IC0yLjk4NDM3NSA4LjM5NDUzMSAtMS44ODI4MTIgNy42NTYyNSAtMS4wNjI1IEMgNi45MjU3ODEgLTAuMjM4MjgxIDUuOTUzMTI1IDAuMTcxODc1IDQuNzM0Mzc1IDAuMTcxODc1IEMgMy41MDM5MDYgMC4xNzE4NzUgMi41MTk1MzEgLTAuMjM4MjgxIDEuNzgxMjUgLTEuMDYyNSBDIDEuMDM5MDYyIC0xLjg4MjgxMiAwLjY3MTg3NSAtMi45ODQzNzUgMC42NzE4NzUgLTQuMzU5Mzc1IEMgMC42NzE4NzUgLTUuNzQyMTg4IDEuMDM5MDYyIC02Ljg0NzY1NiAxLjc4MTI1IC03LjY3MTg3NSBDIDIuNTE5NTMxIC04LjQ5MjE4OCAzLjUwMzkwNiAtOC45MDYyNSA0LjczNDM3NSAtOC45MDYyNSBaIE0gNC43MzQzNzUgLTguOTA2MjUgIi8+Cjwvc3ltYm9sPgo8c3ltYm9sIG92ZXJmbG93PSJ2aXNpYmxlIiBpZD0iZ2x5cGgwLTMiPgo8cGF0aCBzdHlsZT0ic3Ryb2tlOm5vbmU7IiBkPSJNIDEuMTcxODc1IC04Ljc1IEwgMi43NjU2MjUgLTguNzUgTCA2LjY1NjI1IC0xLjQzNzUgTCA2LjY1NjI1IC04Ljc1IEwgNy43OTY4NzUgLTguNzUgTCA3Ljc5Njg3NSAwIEwgNi4yMDMxMjUgMCBMIDIuMzI4MTI1IC03LjMxMjUgTCAyLjMyODEyNSAwIEwgMS4xNzE4NzUgMCBaIE0gMS4xNzE4NzUgLTguNzUgIi8+Cjwvc3ltYm9sPgo8c3ltYm9sIG92ZXJmbG93PSJ2aXNpYmxlIiBpZD0iZ2x5cGgxLTAiPgo8cGF0aCBzdHlsZT0ic3Ryb2tlOm5vbmU7IiBkPSJNIDAuNSAxLjc2NTYyNSBMIDAuNSAtNy4wNDY4NzUgTCA1LjUgLTcuMDQ2ODc1IEwgNS41IDEuNzY1NjI1IFogTSAxLjA2MjUgMS4yMTg3NSBMIDQuOTM3NSAxLjIxODc1IEwgNC45Mzc1IC02LjQ4NDM3NSBMIDEuMDYyNSAtNi40ODQzNzUgWiBNIDEuMDYyNSAxLjIxODc1ICIvPgo8L3N5bWJvbD4KPHN5bWJvbCBvdmVyZmxvdz0idmlzaWJsZSIgaWQ9ImdseXBoMS0xIj4KPHBhdGggc3R5bGU9InN0cm9rZTpub25lOyIgZD0iTSAxLjkyMTg3NSAtMC44MjgxMjUgTCA1LjM1OTM3NSAtMC44MjgxMjUgTCA1LjM1OTM3NSAwIEwgMC43MzQzNzUgMCBMIDAuNzM0Mzc1IC0wLjgyODEyNSBDIDEuMTA5Mzc1IC0xLjIxMDkzOCAxLjYxNzE4OCAtMS43MzQzNzUgMi4yNjU2MjUgLTIuMzkwNjI1IEMgMi45MTAxNTYgLTMuMDQ2ODc1IDMuMzE2NDA2IC0zLjQ2ODc1IDMuNDg0Mzc1IC0zLjY1NjI1IEMgMy43OTY4NzUgLTQuMDA3ODEyIDQuMDE1NjI1IC00LjMwNDY4OCA0LjE0MDYyNSAtNC41NDY4NzUgQyA0LjI2NTYyNSAtNC43OTY4NzUgNC4zMjgxMjUgLTUuMDM5MDYyIDQuMzI4MTI1IC01LjI4MTI1IEMgNC4zMjgxMjUgLTUuNjY0MDYyIDQuMTkxNDA2IC01Ljk3NjU2MiAzLjkyMTg3NSAtNi4yMTg3NSBDIDMuNjQ4NDM4IC02LjQ2ODc1IDMuMjk2ODc1IC02LjU5Mzc1IDIuODU5Mzc1IC02LjU5Mzc1IEMgMi41NDY4NzUgLTYuNTkzNzUgMi4yMTg3NSAtNi41MzUxNTYgMS44NzUgLTYuNDIxODc1IEMgMS41MzkwNjIgLTYuMzE2NDA2IDEuMTc1NzgxIC02LjE1NjI1IDAuNzgxMjUgLTUuOTM3NSBMIDAuNzgxMjUgLTYuOTM3NSBDIDEuMTc1NzgxIC03LjA5Mzc1IDEuNTQ2ODc1IC03LjIxMDkzOCAxLjg5MDYyNSAtNy4yOTY4NzUgQyAyLjIzNDM3NSAtNy4zNzg5MDYgMi41NTA3ODEgLTcuNDIxODc1IDIuODQzNzUgLTcuNDIxODc1IEMgMy41OTM3NSAtNy40MjE4NzUgNC4xOTE0MDYgLTcuMjM0Mzc1IDQuNjQwNjI1IC02Ljg1OTM3NSBDIDUuMDk3NjU2IC02LjQ4NDM3NSA1LjMyODEyNSAtNS45NzY1NjIgNS4zMjgxMjUgLTUuMzQzNzUgQyA1LjMyODEyNSAtNS4wMzkwNjIgNS4yNjk1MzEgLTQuNzUzOTA2IDUuMTU2MjUgLTQuNDg0Mzc1IEMgNS4wMzkwNjIgLTQuMjIyNjU2IDQuODM1OTM4IC0zLjkxMDE1NiA0LjU0Njg3NSAtMy41NDY4NzUgQyA0LjQ2MDkzOCAtMy40NTMxMjUgNC4yMDMxMjUgLTMuMTc1NzgxIDMuNzY1NjI1IC0yLjcxODc1IEMgMy4zMjgxMjUgLTIuMjY5NTMxIDIuNzEwOTM4IC0xLjY0MDYyNSAxLjkyMTg3NSAtMC44MjgxMjUgWiBNIDEuOTIxODc1IC0wLjgyODEyNSAiLz4KPC9zeW1ib2w+CjxzeW1ib2wgb3ZlcmZsb3c9InZpc2libGUiIGlkPSJnbHlwaDEtMiI+CjxwYXRoIHN0eWxlPSJzdHJva2U6bm9uZTsiIGQ9Ik0gNC4wNjI1IC0zLjkzNzUgQyA0LjUzMTI1IC0zLjgzMjAzMSA0Ljg5NDUzMSAtMy42MTcxODggNS4xNTYyNSAtMy4yOTY4NzUgQyA1LjQyNTc4MSAtMi45ODQzNzUgNS41NjI1IC0yLjU5Mzc1IDUuNTYyNSAtMi4xMjUgQyA1LjU2MjUgLTEuNDA2MjUgNS4zMTI1IC0wLjg0NzY1NiA0LjgxMjUgLTAuNDUzMTI1IEMgNC4zMjAzMTIgLTAuMDU0Njg3NSAzLjYxNzE4OCAwLjE0MDYyNSAyLjcwMzEyNSAwLjE0MDYyNSBDIDIuMzk4NDM4IDAuMTQwNjI1IDIuMDg1OTM4IDAuMTA5Mzc1IDEuNzY1NjI1IDAuMDQ2ODc1IEMgMS40NDE0MDYgLTAuMDE1NjI1IDEuMTA5Mzc1IC0wLjEwMTU2MiAwLjc2NTYyNSAtMC4yMTg3NSBMIDAuNzY1NjI1IC0xLjE3MTg3NSBDIDEuMDM1MTU2IC0xLjAxNTYyNSAxLjMzMjAzMSAtMC44OTQ1MzEgMS42NTYyNSAtMC44MTI1IEMgMS45ODgyODEgLTAuNzI2NTYyIDIuMzMyMDMxIC0wLjY4NzUgMi42ODc1IC0wLjY4NzUgQyAzLjMwMDc4MSAtMC42ODc1IDMuNzY5NTMxIC0wLjgwNDY4OCA0LjA5Mzc1IC0xLjA0Njg3NSBDIDQuNDE0MDYyIC0xLjI5Njg3NSA0LjU3ODEyNSAtMS42NTYyNSA0LjU3ODEyNSAtMi4xMjUgQyA0LjU3ODEyNSAtMi41NTA3ODEgNC40MjU3ODEgLTIuODgyODEyIDQuMTI1IC0zLjEyNSBDIDMuODIwMzEyIC0zLjM2MzI4MSAzLjQwNjI1IC0zLjQ4NDM3NSAyLjg3NSAtMy40ODQzNzUgTCAyLjAxNTYyNSAtMy40ODQzNzUgTCAyLjAxNTYyNSAtNC4yOTY4NzUgTCAyLjkwNjI1IC00LjI5Njg3NSBDIDMuMzk0NTMxIC00LjI5Njg3NSAzLjc2NTYyNSAtNC4zOTQ1MzEgNC4wMTU2MjUgLTQuNTkzNzUgQyA0LjI3MzQzOCAtNC43ODkwNjIgNC40MDYyNSAtNS4wNzAzMTIgNC40MDYyNSAtNS40Mzc1IEMgNC40MDYyNSAtNS44MDA3ODEgNC4yNjk1MzEgLTYuMDgyMDMxIDQgLTYuMjgxMjUgQyAzLjczODI4MSAtNi40ODgyODEgMy4zNjMyODEgLTYuNTkzNzUgMi44NzUgLTYuNTkzNzUgQyAyLjYwMTU2MiAtNi41OTM3NSAyLjMxMjUgLTYuNTYyNSAyIC02LjUgQyAxLjY4NzUgLTYuNDQ1MzEyIDEuMzQ3NjU2IC02LjM1OTM3NSAwLjk4NDM3NSAtNi4yMzQzNzUgTCAwLjk4NDM3NSAtNy4xMDkzNzUgQyAxLjM1OTM3NSAtNy4yMTA5MzggMS43MDcwMzEgLTcuMjg5MDYyIDIuMDMxMjUgLTcuMzQzNzUgQyAyLjM2MzI4MSAtNy4zOTQ1MzEgMi42NzE4NzUgLTcuNDIxODc1IDIuOTUzMTI1IC03LjQyMTg3NSBDIDMuNzAzMTI1IC03LjQyMTg3NSA0LjI5Njg3NSAtNy4yNSA0LjczNDM3NSAtNi45MDYyNSBDIDUuMTcxODc1IC02LjU3MDMxMiA1LjM5MDYyNSAtNi4xMTMyODEgNS4zOTA2MjUgLTUuNTMxMjUgQyA1LjM5MDYyNSAtNS4xMjUgNS4yNzM0MzggLTQuNzgxMjUgNS4wNDY4NzUgLTQuNSBDIDQuODE2NDA2IC00LjIyNjU2MiA0LjQ4ODI4MSAtNC4wMzkwNjIgNC4wNjI1IC0zLjkzNzUgWiBNIDQuMDYyNSAtMy45Mzc1ICIvPgo8L3N5bWJvbD4KPC9nPgo8L2RlZnM+CjxnIGlkPSJzdXJmYWNlMTAiPgo8cmVjdCB4PSIwIiB5PSIwIiB3aWR0aD0iMzAwIiBoZWlnaHQ9IjMwMCIgc3R5bGU9ImZpbGw6cmdiKDEwMCUsMTAwJSwxMDAlKTtmaWxsLW9wYWNpdHk6MTtzdHJva2U6bm9uZTsiLz4KPGcgc3R5bGU9ImZpbGw6cmdiKDEwMCUsMCUsMCUpO2ZpbGwtb3BhY2l0eToxOyI+CiAgPHVzZSB4bGluazpocmVmPSIjZ2x5cGgwLTEiIHg9IjExMC4wNDI5NjkiIHk9IjE1NC4xMzg2NzIiLz4KPC9nPgo8ZyBzdHlsZT0iZmlsbDpyZ2IoMTAwJSwwJSwwJSk7ZmlsbC1vcGFjaXR5OjE7Ij4KICA8dXNlIHhsaW5rOmhyZWY9IiNnbHlwaDEtMSIgeD0iMTE5LjA2NjQwNiIgeT0iMTU5LjAyMTQ4NCIvPgo8L2c+CjxnIHN0eWxlPSJmaWxsOnJnYigxMDAlLDAlLDAlKTtmaWxsLW9wYWNpdHk6MTsiPgogIDx1c2UgeGxpbms6aHJlZj0iI2dseXBoMC0yIiB4PSIxMjUuNDI4NzExIiB5PSIxNTQuMTM4NjcyIi8+CjwvZz4KPGcgc3R5bGU9ImZpbGw6cmdiKDAlLDAlLDEwMCUpO2ZpbGwtb3BhY2l0eToxOyI+CiAgPHVzZSB4bGluazpocmVmPSIjZ2x5cGgwLTMiIHg9IjE2NC45NTcwMzEiIHk9IjE1NC4xMzg2NzIiLz4KICA8dXNlIHhsaW5rOmhyZWY9IiNnbHlwaDAtMSIgeD0iMTczLjkzMzU5NCIgeT0iMTU0LjEzODY3MiIvPgo8L2c+CjxnIHN0eWxlPSJmaWxsOnJnYigwJSwwJSwxMDAlKTtmaWxsLW9wYWNpdHk6MTsiPgogIDx1c2UgeGxpbms6aHJlZj0iI2dseXBoMS0yIiB4PSIxODIuOTU3MDMxIiB5PSIxNTkuMDIxNDg0Ii8+CjwvZz4KPHBhdGggc3R5bGU9ImZpbGw6bm9uZTtzdHJva2Utd2lkdGg6MS4yO3N0cm9rZS1saW5lY2FwOmJ1dHQ7c3Ryb2tlLWxpbmVqb2luOm1pdGVyO3N0cm9rZTpyZ2IoMTAwJSwwJSwwJSk7c3Ryb2tlLW9wYWNpdHk6MTtzdHJva2UtbWl0ZXJsaW1pdDoxMDsiIGQ9Ik0gMTM2LjQ0MTQwNiAxNTMuNzUgTCAxNTAgMTUzLjc1ICIvPgo8cGF0aCBzdHlsZT0iZmlsbDpub25lO3N0cm9rZS13aWR0aDoxLjI7c3Ryb2tlLWxpbmVjYXA6YnV0dDtzdHJva2UtbGluZWpvaW46bWl0ZXI7c3Ryb2tlOnJnYigwJSwwJSwxMDAlKTtzdHJva2Utb3BhY2l0eToxO3N0cm9rZS1taXRlcmxpbWl0OjEwOyIgZD0iTSAxNTAgMTUzLjc1IEwgMTYzLjU1ODU5NCAxNTMuNzUgIi8+CjxwYXRoIHN0eWxlPSJmaWxsOm5vbmU7c3Ryb2tlLXdpZHRoOjEuMjtzdHJva2UtbGluZWNhcDpidXR0O3N0cm9rZS1saW5lam9pbjptaXRlcjtzdHJva2U6cmdiKDEwMCUsMCUsMCUpO3N0cm9rZS1vcGFjaXR5OjE7c3Ryb2tlLW1pdGVybGltaXQ6MTA7IiBkPSJNIDEzNi40NDE0MDYgMTQ2LjI1IEwgMTUwIDE0Ni4yNSAiLz4KPHBhdGggc3R5bGU9ImZpbGw6bm9uZTtzdHJva2Utd2lkdGg6MS4yO3N0cm9rZS1saW5lY2FwOmJ1dHQ7c3Ryb2tlLWxpbmVqb2luOm1pdGVyO3N0cm9rZTpyZ2IoMCUsMCUsMTAwJSk7c3Ryb2tlLW9wYWNpdHk6MTtzdHJva2UtbWl0ZXJsaW1pdDoxMDsiIGQ9Ik0gMTUwIDE0Ni4yNSBMIDE2My41NTg1OTQgMTQ2LjI1ICIvPgo8L2c+Cjwvc3ZnPgo='
p25
sa(dp26
g2
(dp27
g4
(lp28
(dp29
g7
g8
sg9
g8
sg10
g11
sa(dp30
g7
g13
sg9
g13
sg10
g11
sa(dp31
g7
S'2'
p32
sg9
g32
sg10
g11
sasg14
(lp33
(dp34
g17
g8
sg18
g13
sa(dp35
g17
g13
sg18
g32
sassg19
g20
sg21
g32
sg22
S'CN=O'
p36
sg24
S'PD94bWwgdmVyc2lvbj0iMS4wIiBlbmNvZGluZz0iVVRGLTgiPz4KPHN2ZyB4bWxucz0iaHR0cDovL3d3dy53My5vcmcvMjAwMC9zdmciIHhtbG5zOnhsaW5rPSJodHRwOi8vd3d3LnczLm9yZy8xOTk5L3hsaW5rIiB3aWR0aD0iMzAwcHQiIGhlaWdodD0iMzAwcHQiIHZpZXdCb3g9IjAgMCAzMDAgMzAwIiB2ZXJzaW9uPSIxLjEiPgo8ZGVmcz4KPGc+CjxzeW1ib2wgb3ZlcmZsb3c9InZpc2libGUiIGlkPSJnbHlwaDAtMCI+CjxwYXRoIHN0eWxlPSJzdHJva2U6bm9uZTsiIGQ9Ik0gMC41OTM3NSAyLjEyNSBMIDAuNTkzNzUgLTguNDY4NzUgTCA2LjU5Mzc1IC04LjQ2ODc1IEwgNi41OTM3NSAyLjEyNSBaIE0gMS4yNjU2MjUgMS40NTMxMjUgTCA1LjkzNzUgMS40NTMxMjUgTCA1LjkzNzUgLTcuNzgxMjUgTCAxLjI2NTYyNSAtNy43ODEyNSBaIE0gMS4yNjU2MjUgMS40NTMxMjUgIi8+Cjwvc3ltYm9sPgo8c3ltYm9sIG92ZXJmbG93PSJ2aXNpYmxlIiBpZD0iZ2x5cGgwLTEiPgo8cGF0aCBzdHlsZT0ic3Ryb2tlOm5vbmU7IiBkPSJNIDEuMTcxODc1IC04Ljc1IEwgMi4zNTkzNzUgLTguNzUgTCAyLjM1OTM3NSAtNS4xNTYyNSBMIDYuNjU2MjUgLTUuMTU2MjUgTCA2LjY1NjI1IC04Ljc1IEwgNy44NDM3NSAtOC43NSBMIDcuODQzNzUgMCBMIDYuNjU2MjUgMCBMIDYuNjU2MjUgLTQuMTcxODc1IEwgMi4zNTkzNzUgLTQuMTcxODc1IEwgMi4zNTkzNzUgMCBMIDEuMTcxODc1IDAgWiBNIDEuMTcxODc1IC04Ljc1ICIvPgo8L3N5bWJvbD4KPHN5bWJvbCBvdmVyZmxvdz0idmlzaWJsZSIgaWQ9ImdseXBoMC0yIj4KPHBhdGggc3R5bGU9InN0cm9rZTpub25lOyIgZD0iTSA0LjczNDM3NSAtNy45NTMxMjUgQyAzLjg2NzE4OCAtNy45NTMxMjUgMy4xNzk2ODggLTcuNjI4OTA2IDIuNjcxODc1IC02Ljk4NDM3NSBDIDIuMTcxODc1IC02LjM0NzY1NiAxLjkyMTg3NSAtNS40NzI2NTYgMS45MjE4NzUgLTQuMzU5Mzc1IEMgMS45MjE4NzUgLTMuMjY1NjI1IDIuMTcxODc1IC0yLjM5NDUzMSAyLjY3MTg3NSAtMS43NSBDIDMuMTc5Njg4IC0xLjExMzI4MSAzLjg2NzE4OCAtMC43OTY4NzUgNC43MzQzNzUgLTAuNzk2ODc1IEMgNS41ODU5MzggLTAuNzk2ODc1IDYuMjY1NjI1IC0xLjExMzI4MSA2Ljc2NTYyNSAtMS43NSBDIDcuMjczNDM4IC0yLjM5NDUzMSA3LjUzMTI1IC0zLjI2NTYyNSA3LjUzMTI1IC00LjM1OTM3NSBDIDcuNTMxMjUgLTUuNDcyNjU2IDcuMjczNDM4IC02LjM0NzY1NiA2Ljc2NTYyNSAtNi45ODQzNzUgQyA2LjI2NTYyNSAtNy42Mjg5MDYgNS41ODU5MzggLTcuOTUzMTI1IDQuNzM0Mzc1IC03Ljk1MzEyNSBaIE0gNC43MzQzNzUgLTguOTA2MjUgQyA1Ljk1MzEyNSAtOC45MDYyNSA2LjkyNTc4MSAtOC40OTIxODggNy42NTYyNSAtNy42NzE4NzUgQyA4LjM5NDUzMSAtNi44NDc2NTYgOC43NjU2MjUgLTUuNzQyMTg4IDguNzY1NjI1IC00LjM1OTM3NSBDIDguNzY1NjI1IC0yLjk4NDM3NSA4LjM5NDUzMSAtMS44ODI4MTIgNy42NTYyNSAtMS4wNjI1IEMgNi45MjU3ODEgLTAuMjM4MjgxIDUuOTUzMTI1IDAuMTcxODc1IDQuNzM0Mzc1IDAuMTcxODc1IEMgMy41MDM5MDYgMC4xNzE4NzUgMi41MTk1MzEgLTAuMjM4MjgxIDEuNzgxMjUgLTEuMDYyNSBDIDEuMDM5MDYyIC0xLjg4MjgxMiAwLjY3MTg3NSAtMi45ODQzNzUgMC42NzE4NzUgLTQuMzU5Mzc1IEMgMC42NzE4NzUgLTUuNzQyMTg4IDEuMDM5MDYyIC02Ljg0NzY1NiAxLjc4MTI1IC03LjY3MTg3NSBDIDIuNTE5NTMxIC04LjQ5MjE4OCAzLjUwMzkwNiAtOC45MDYyNSA0LjczNDM3NSAtOC45MDYyNSBaIE0gNC43MzQzNzUgLTguOTA2MjUgIi8+Cjwvc3ltYm9sPgo8c3ltYm9sIG92ZXJmbG93PSJ2aXNpYmxlIiBpZD0iZ2x5cGgwLTMiPgo8cGF0aCBzdHlsZT0ic3Ryb2tlOm5vbmU7IiBkPSJNIDEuMTcxODc1IC04Ljc1IEwgMi43NjU2MjUgLTguNzUgTCA2LjY1NjI1IC0xLjQzNzUgTCA2LjY1NjI1IC04Ljc1IEwgNy43OTY4NzUgLTguNzUgTCA3Ljc5Njg3NSAwIEwgNi4yMDMxMjUgMCBMIDIuMzI4MTI1IC03LjMxMjUgTCAyLjMyODEyNSAwIEwgMS4xNzE4NzUgMCBaIE0gMS4xNzE4NzUgLTguNzUgIi8+Cjwvc3ltYm9sPgo8c3ltYm9sIG92ZXJmbG93PSJ2aXNpYmxlIiBpZD0iZ2x5cGgxLTAiPgo8cGF0aCBzdHlsZT0ic3Ryb2tlOm5vbmU7IiBkPSJNIDAuNSAxLjc2NTYyNSBMIDAuNSAtNy4wNDY4NzUgTCA1LjUgLTcuMDQ2ODc1IEwgNS41IDEuNzY1NjI1IFogTSAxLjA2MjUgMS4yMTg3NSBMIDQuOTM3NSAxLjIxODc1IEwgNC45Mzc1IC02LjQ4NDM3NSBMIDEuMDYyNSAtNi40ODQzNzUgWiBNIDEuMDYyNSAxLjIxODc1ICIvPgo8L3N5bWJvbD4KPHN5bWJvbCBvdmVyZmxvdz0idmlzaWJsZSIgaWQ9ImdseXBoMS0xIj4KPHBhdGggc3R5bGU9InN0cm9rZTpub25lOyIgZD0iTSAxLjkyMTg3NSAtMC44MjgxMjUgTCA1LjM1OTM3NSAtMC44MjgxMjUgTCA1LjM1OTM3NSAwIEwgMC43MzQzNzUgMCBMIDAuNzM0Mzc1IC0wLjgyODEyNSBDIDEuMTA5Mzc1IC0xLjIxMDkzOCAxLjYxNzE4OCAtMS43MzQzNzUgMi4yNjU2MjUgLTIuMzkwNjI1IEMgMi45MTAxNTYgLTMuMDQ2ODc1IDMuMzE2NDA2IC0zLjQ2ODc1IDMuNDg0Mzc1IC0zLjY1NjI1IEMgMy43OTY4NzUgLTQuMDA3ODEyIDQuMDE1NjI1IC00LjMwNDY4OCA0LjE0MDYyNSAtNC41NDY4NzUgQyA0LjI2NTYyNSAtNC43OTY4NzUgNC4zMjgxMjUgLTUuMDM5MDYyIDQuMzI4MTI1IC01LjI4MTI1IEMgNC4zMjgxMjUgLTUuNjY0MDYyIDQuMTkxNDA2IC01Ljk3NjU2MiAzLjkyMTg3NSAtNi4yMTg3NSBDIDMuNjQ4NDM4IC02LjQ2ODc1IDMuMjk2ODc1IC02LjU5Mzc1IDIuODU5Mzc1IC02LjU5Mzc1IEMgMi41NDY4NzUgLTYuNTkzNzUgMi4yMTg3NSAtNi41MzUxNTYgMS44NzUgLTYuNDIxODc1IEMgMS41MzkwNjIgLTYuMzE2NDA2IDEuMTc1NzgxIC02LjE1NjI1IDAuNzgxMjUgLTUuOTM3NSBMIDAuNzgxMjUgLTYuOTM3NSBDIDEuMTc1NzgxIC03LjA5Mzc1IDEuNTQ2ODc1IC03LjIxMDkzOCAxLjg5MDYyNSAtNy4yOTY4NzUgQyAyLjIzNDM3NSAtNy4zNzg5MDYgMi41NTA3ODEgLTcuNDIxODc1IDIuODQzNzUgLTcuNDIxODc1IEMgMy41OTM3NSAtNy40MjE4NzUgNC4xOTE0MDYgLTcuMjM0Mzc1IDQuNjQwNjI1IC02Ljg1OTM3NSBDIDUuMDk3NjU2IC02LjQ4NDM3NSA1LjMyODEyNSAtNS45NzY1NjIgNS4zMjgxMjUgLTUuMzQzNzUgQyA1LjMyODEyNSAtNS4wMzkwNjIgNS4yNjk1MzEgLTQuNzUzOTA2IDUuMTU2MjUgLTQuNDg0Mzc1IEMgNS4wMzkwNjIgLTQuMjIyNjU2IDQuODM1OTM4IC0zLjkxMDE1NiA0LjU0Njg3NSAtMy41NDY4NzUgQyA0LjQ2MDkzOCAtMy40NTMxMjUgNC4yMDMxMjUgLTMuMTc1NzgxIDMuNzY1NjI1IC0yLjcxODc1IEMgMy4zMjgxMjUgLTIuMjY5NTMxIDIuNzEwOTM4IC0xLjY0MDYyNSAxLjkyMTg3NSAtMC44MjgxMjUgWiBNIDEuOTIxODc1IC0wLjgyODEyNSAiLz4KPC9zeW1ib2w+CjxzeW1ib2wgb3ZlcmZsb3c9InZpc2libGUiIGlkPSJnbHlwaDEtMiI+CjxwYXRoIHN0eWxlPSJzdHJva2U6bm9uZTsiIGQ9Ik0gNC4wNjI1IC0zLjkzNzUgQyA0LjUzMTI1IC0zLjgzMjAzMSA0Ljg5NDUzMSAtMy42MTcxODggNS4xNTYyNSAtMy4yOTY4NzUgQyA1LjQyNTc4MSAtMi45ODQzNzUgNS41NjI1IC0yLjU5Mzc1IDUuNTYyNSAtMi4xMjUgQyA1LjU2MjUgLTEuNDA2MjUgNS4zMTI1IC0wLjg0NzY1NiA0LjgxMjUgLTAuNDUzMTI1IEMgNC4zMjAzMTIgLTAuMDU0Njg3NSAzLjYxNzE4OCAwLjE0MDYyNSAyLjcwMzEyNSAwLjE0MDYyNSBDIDIuMzk4NDM4IDAuMTQwNjI1IDIuMDg1OTM4IDAuMTA5Mzc1IDEuNzY1NjI1IDAuMDQ2ODc1IEMgMS40NDE0MDYgLTAuMDE1NjI1IDEuMTA5Mzc1IC0wLjEwMTU2MiAwLjc2NTYyNSAtMC4yMTg3NSBMIDAuNzY1NjI1IC0xLjE3MTg3NSBDIDEuMDM1MTU2IC0xLjAxNTYyNSAxLjMzMjAzMSAtMC44OTQ1MzEgMS42NTYyNSAtMC44MTI1IEMgMS45ODgyODEgLTAuNzI2NTYyIDIuMzMyMDMxIC0wLjY4NzUgMi42ODc1IC0wLjY4NzUgQyAzLjMwMDc4MSAtMC42ODc1IDMuNzY5NTMxIC0wLjgwNDY4OCA0LjA5Mzc1IC0xLjA0Njg3NSBDIDQuNDE0MDYyIC0xLjI5Njg3NSA0LjU3ODEyNSAtMS42NTYyNSA0LjU3ODEyNSAtMi4xMjUgQyA0LjU3ODEyNSAtMi41NTA3ODEgNC40MjU3ODEgLTIuODgyODEyIDQuMTI1IC0zLjEyNSBDIDMuODIwMzEyIC0zLjM2MzI4MSAzLjQwNjI1IC0zLjQ4NDM3NSAyLjg3NSAtMy40ODQzNzUgTCAyLjAxNTYyNSAtMy40ODQzNzUgTCAyLjAxNTYyNSAtNC4yOTY4NzUgTCAyLjkwNjI1IC00LjI5Njg3NSBDIDMuMzk0NTMxIC00LjI5Njg3NSAzLjc2NTYyNSAtNC4zOTQ1MzEgNC4wMTU2MjUgLTQuNTkzNzUgQyA0LjI3MzQzOCAtNC43ODkwNjIgNC40MDYyNSAtNS4wNzAzMTIgNC40MDYyNSAtNS40Mzc1IEMgNC40MDYyNSAtNS44MDA3ODEgNC4yNjk1MzEgLTYuMDgyMDMxIDQgLTYuMjgxMjUgQyAzLjczODI4MSAtNi40ODgyODEgMy4zNjMyODEgLTYuNTkzNzUgMi44NzUgLTYuNTkzNzUgQyAyLjYwMTU2MiAtNi41OTM3NSAyLjMxMjUgLTYuNTYyNSAyIC02LjUgQyAxLjY4NzUgLTYuNDQ1MzEyIDEuMzQ3NjU2IC02LjM1OTM3NSAwLjk4NDM3NSAtNi4yMzQzNzUgTCAwLjk4NDM3NSAtNy4xMDkzNzUgQyAxLjM1OTM3NSAtNy4yMTA5MzggMS43MDcwMzEgLTcuMjg5MDYyIDIuMDMxMjUgLTcuMzQzNzUgQyAyLjM2MzI4MSAtNy4zOTQ1MzEgMi42NzE4NzUgLTcuNDIxODc1IDIuOTUzMTI1IC03LjQyMTg3NSBDIDMuNzAzMTI1IC03LjQyMTg3NSA0LjI5Njg3NSAtNy4yNSA0LjczNDM3NSAtNi45MDYyNSBDIDUuMTcxODc1IC02LjU3MDMxMiA1LjM5MDYyNSAtNi4xMTMyODEgNS4zOTA2MjUgLTUuNTMxMjUgQyA1LjM5MDYyNSAtNS4xMjUgNS4yNzM0MzggLTQuNzgxMjUgNS4wNDY4NzUgLTQuNSBDIDQuODE2NDA2IC00LjIyNjU2MiA0LjQ4ODI4MSAtNC4wMzkwNjIgNC4wNjI1IC0zLjkzNzUgWiBNIDQuMDYyNSAtMy45Mzc1ICIvPgo8L3N5bWJvbD4KPC9nPgo8L2RlZnM+CjxnIGlkPSJzdXJmYWNlMTQiPgo8cmVjdCB4PSIwIiB5PSIwIiB3aWR0aD0iMzAwIiBoZWlnaHQ9IjMwMCIgc3R5bGU9ImZpbGw6cmdiKDEwMCUsMTAwJSwxMDAlKTtmaWxsLW9wYWNpdHk6MTtzdHJva2U6bm9uZTsiLz4KPGcgc3R5bGU9ImZpbGw6cmdiKDEwMCUsMCUsMCUpO2ZpbGwtb3BhY2l0eToxOyI+CiAgPHVzZSB4bGluazpocmVmPSIjZ2x5cGgwLTEiIHg9Ijk2LjA0Mjk2OSIgeT0iMTYzLjcwMTE3MiIvPgo8L2c+CjxnIHN0eWxlPSJmaWxsOnJnYigxMDAlLDAlLDAlKTtmaWxsLW9wYWNpdHk6MTsiPgogIDx1c2UgeGxpbms6aHJlZj0iI2dseXBoMS0xIiB4PSIxMDUuMDY2NDA2IiB5PSIxNjguNTgzOTg0Ii8+CjwvZz4KPGcgc3R5bGU9ImZpbGw6cmdiKDEwMCUsMCUsMCUpO2ZpbGwtb3BhY2l0eToxOyI+CiAgPHVzZSB4bGluazpocmVmPSIjZ2x5cGgwLTIiIHg9IjExMS40Mjg3MTEiIHk9IjE2My43MDExNzIiLz4KPC9nPgo8ZyBzdHlsZT0iZmlsbDpyZ2IoMCUsMCUsMTAwJSk7ZmlsbC1vcGFjaXR5OjE7Ij4KICA8dXNlIHhsaW5rOmhyZWY9IiNnbHlwaDAtMyIgeD0iMTQ1LjgzMjAzMSIgeT0iMTQ0LjU3NjE3MiIvPgogIDx1c2UgeGxpbms6aHJlZj0iI2dseXBoMC0xIiB4PSIxNTQuODA4NTk0IiB5PSIxNDQuNTc2MTcyIi8+CjwvZz4KPGcgc3R5bGU9ImZpbGw6cmdiKDAlLDAlLDEwMCUpO2ZpbGwtb3BhY2l0eToxOyI+CiAgPHVzZSB4bGluazpocmVmPSIjZ2x5cGgxLTIiIHg9IjE2My44MzIwMzEiIHk9IjE0OS40NTg5ODQiLz4KPC9nPgo8cGF0aCBzdHlsZT0iZmlsbDpub25lO3N0cm9rZS13aWR0aDoxLjI7c3Ryb2tlLWxpbmVjYXA6YnV0dDtzdHJva2UtbGluZWpvaW46bWl0ZXI7c3Ryb2tlOnJnYigxMDAlLDAlLDAlKTtzdHJva2Utb3BhY2l0eToxO3N0cm9rZS1taXRlcmxpbWl0OjEwOyIgZD0iTSAxMjQuMzE2NDA2IDE1OS41OTc2NTYgTCAxMzUuMzEyNSAxNTMuMjQ2MDk0ICIvPgo8cGF0aCBzdHlsZT0iZmlsbDpub25lO3N0cm9rZS13aWR0aDoxLjI7c3Ryb2tlLWxpbmVjYXA6YnV0dDtzdHJva2UtbGluZWpvaW46bWl0ZXI7c3Ryb2tlOnJnYigwJSwwJSwxMDAlKTtzdHJva2Utb3BhY2l0eToxO3N0cm9rZS1taXRlcmxpbWl0OjEwOyIgZD0iTSAxMzUuMzEyNSAxNTMuMjQ2MDk0IEwgMTQ2LjMwODU5NCAxNDYuODk4NDM4ICIvPgo8cGF0aCBzdHlsZT0iZmlsbDpub25lO3N0cm9rZS13aWR0aDoxLjI7c3Ryb2tlLWxpbmVjYXA6YnV0dDtzdHJva2UtbGluZWpvaW46bWl0ZXI7c3Ryb2tlOnJnYigxMDAlLDAlLDAlKTtzdHJva2Utb3BhY2l0eToxO3N0cm9rZS1taXRlcmxpbWl0OjEwOyIgZD0iTSAxMjAuNTY2NDA2IDE1My4xMDE1NjIgTCAxMzEuNTYyNSAxNDYuNzUzOTA2ICIvPgo8cGF0aCBzdHlsZT0iZmlsbDpub25lO3N0cm9rZS13aWR0aDoxLjI7c3Ryb2tlLWxpbmVjYXA6YnV0dDtzdHJva2UtbGluZWpvaW46bWl0ZXI7c3Ryb2tlOnJnYigwJSwwJSwxMDAlKTtzdHJva2Utb3BhY2l0eToxO3N0cm9rZS1taXRlcmxpbWl0OjEwOyIgZD0iTSAxMzEuNTYyNSAxNDYuNzUzOTA2IEwgMTQyLjU1ODU5NCAxNDAuNDAyMzQ0ICIvPgo8cGF0aCBzdHlsZT0iZmlsbDpub25lO3N0cm9rZS13aWR0aDoxLjI7c3Ryb2tlLWxpbmVjYXA6YnV0dDtzdHJva2UtbGluZWpvaW46bWl0ZXI7c3Ryb2tlOnJnYigwJSwwJSwxMDAlKTtzdHJva2Utb3BhY2l0eToxO3N0cm9rZS1taXRlcmxpbWl0OjEwOyIgZD0iTSAxNjUuNzYxNzE5IDE0OS41MzkwNjIgTCAxNzQuNDQ1MzEyIDE1NC41NTA3ODEgIi8+CjxwYXRoIHN0eWxlPSJmaWxsOm5vbmU7c3Ryb2tlLXdpZHRoOjEuMjtzdHJva2UtbGluZWNhcDpidXR0O3N0cm9rZS1saW5lam9pbjptaXRlcjtzdHJva2U6cmdiKDAlLDAlLDAlKTtzdHJva2Utb3BhY2l0eToxO3N0cm9rZS1taXRlcmxpbWl0OjEwOyIgZD0iTSAxNzQuNDQ1MzEyIDE1NC41NTA3ODEgTCAxODMuMTI1IDE1OS41NjI1ICIvPgo8L2c+Cjwvc3ZnPgo='
p37
sa(dp38
g2
(dp39
g4
(lp40
(dp41
g7
g8
sg9
g20
sg10
g11
sa(dp42
g7
g13
sg9
S'6'
p43
sg10
g11
sasg14
(lp44
(dp45
g17
g8
sg18
g13
sassg19
g20
sg21
g20
sg22
S'Br.F'
p46
sg24
S'PD94bWwgdmVyc2lvbj0iMS4wIiBlbmNvZGluZz0iVVRGLTgiPz4KPHN2ZyB4bWxucz0iaHR0cDovL3d3dy53My5vcmcvMjAwMC9zdmciIHhtbG5zOnhsaW5rPSJodHRwOi8vd3d3LnczLm9yZy8xOTk5L3hsaW5rIiB3aWR0aD0iMzAwcHQiIGhlaWdodD0iMzAwcHQiIHZpZXdCb3g9IjAgMCAzMDAgMzAwIiB2ZXJzaW9uPSIxLjEiPgo8ZGVmcz4KPGc+CjxzeW1ib2wgb3ZlcmZsb3c9InZpc2libGUiIGlkPSJnbHlwaDAtMCI+CjxwYXRoIHN0eWxlPSJzdHJva2U6bm9uZTsiIGQ9Ik0gMC41OTM3NSAyLjEyNSBMIDAuNTkzNzUgLTguNDY4NzUgTCA2LjU5Mzc1IC04LjQ2ODc1IEwgNi41OTM3NSAyLjEyNSBaIE0gMS4yNjU2MjUgMS40NTMxMjUgTCA1LjkzNzUgMS40NTMxMjUgTCA1LjkzNzUgLTcuNzgxMjUgTCAxLjI2NTYyNSAtNy43ODEyNSBaIE0gMS4yNjU2MjUgMS40NTMxMjUgIi8+Cjwvc3ltYm9sPgo8c3ltYm9sIG92ZXJmbG93PSJ2aXNpYmxlIiBpZD0iZ2x5cGgwLTEiPgo8cGF0aCBzdHlsZT0ic3Ryb2tlOm5vbmU7IiBkPSJNIDEuMTcxODc1IC04Ljc1IEwgMi4zNTkzNzUgLTguNzUgTCAyLjM1OTM3NSAtNS4xNTYyNSBMIDYuNjU2MjUgLTUuMTU2MjUgTCA2LjY1NjI1IC04Ljc1IEwgNy44NDM3NSAtOC43NSBMIDcuODQzNzUgMCBMIDYuNjU2MjUgMCBMIDYuNjU2MjUgLTQuMTcxODc1IEwgMi4zNTkzNzUgLTQuMTcxODc1IEwgMi4zNTkzNzUgMCBMIDEuMTcxODc1IDAgWiBNIDEuMTcxODc1IC04Ljc1ICIvPgo8L3N5bWJvbD4KPHN5bWJvbCBvdmVyZmxvdz0idmlzaWJsZSIgaWQ9ImdseXBoMC0yIj4KPHBhdGggc3R5bGU9InN0cm9rZTpub25lOyIgZD0iTSAyLjM1OTM3NSAtNC4xNzE4NzUgTCAyLjM1OTM3NSAtMC45Njg3NSBMIDQuMjY1NjI1IC0wLjk2ODc1IEMgNC44OTg0MzggLTAuOTY4NzUgNS4zNjcxODggLTEuMDk3NjU2IDUuNjcxODc1IC0xLjM1OTM3NSBDIDUuOTg0Mzc1IC0xLjYyODkwNiA2LjE0MDYyNSAtMi4wMzUxNTYgNi4xNDA2MjUgLTIuNTc4MTI1IEMgNi4xNDA2MjUgLTMuMTI4OTA2IDUuOTg0Mzc1IC0zLjUzMTI1IDUuNjcxODc1IC0zLjc4MTI1IEMgNS4zNjcxODggLTQuMDM5MDYyIDQuODk4NDM4IC00LjE3MTg3NSA0LjI2NTYyNSAtNC4xNzE4NzUgWiBNIDIuMzU5Mzc1IC03Ljc4MTI1IEwgMi4zNTkzNzUgLTUuMTQwNjI1IEwgNC4xMDkzNzUgLTUuMTQwNjI1IEMgNC42OTE0MDYgLTUuMTQwNjI1IDUuMTI1IC01LjI1IDUuNDA2MjUgLTUuNDY4NzUgQyA1LjY4NzUgLTUuNjg3NSA1LjgyODEyNSAtNi4wMTU2MjUgNS44MjgxMjUgLTYuNDUzMTI1IEMgNS44MjgxMjUgLTYuODk4NDM4IDUuNjg3NSAtNy4yMzQzNzUgNS40MDYyNSAtNy40NTMxMjUgQyA1LjEyNSAtNy42NzE4NzUgNC42OTE0MDYgLTcuNzgxMjUgNC4xMDkzNzUgLTcuNzgxMjUgWiBNIDEuMTcxODc1IC04Ljc1IEwgNC4yMDMxMjUgLTguNzUgQyA1LjEwOTM3NSAtOC43NSA1LjgwMDc4MSAtOC41NjI1IDYuMjgxMjUgLTguMTg3NSBDIDYuNzY5NTMxIC03LjgxMjUgNy4wMTU2MjUgLTcuMjgxMjUgNy4wMTU2MjUgLTYuNTkzNzUgQyA3LjAxNTYyNSAtNi4wNTA3ODEgNi44OTA2MjUgLTUuNjE3MTg4IDYuNjQwNjI1IC01LjI5Njg3NSBDIDYuMzkwNjI1IC00Ljk4NDM3NSA2LjAyMzQzOCAtNC43ODkwNjIgNS41NDY4NzUgLTQuNzE4NzUgQyA2LjEyODkwNiAtNC41OTM3NSA2LjU4MjAzMSAtNC4zMzIwMzEgNi45MDYyNSAtMy45Mzc1IEMgNy4yMjY1NjIgLTMuNTM5MDYyIDcuMzkwNjI1IC0zLjA0Njg3NSA3LjM5MDYyNSAtMi40NTMxMjUgQyA3LjM5MDYyNSAtMS42NzE4NzUgNy4xMjUgLTEuMDY2NDA2IDYuNTkzNzUgLTAuNjQwNjI1IEMgNi4wNjI1IC0wLjIxMDkzOCA1LjMwMDc4MSAwIDQuMzEyNSAwIEwgMS4xNzE4NzUgMCBaIE0gMS4xNzE4NzUgLTguNzUgIi8+Cjwvc3ltYm9sPgo8c3ltYm9sIG92ZXJmbG93PSJ2aXNpYmxlIiBpZD0iZ2x5cGgwLTMiPgo8cGF0aCBzdHlsZT0ic3Ryb2tlOm5vbmU7IiBkPSJNIDQuOTM3NSAtNS41NjI1IEMgNC44MTI1IC01LjYyNSA0LjY3NTc4MSAtNS42NzE4NzUgNC41MzEyNSAtNS43MDMxMjUgQyA0LjM5NDUzMSAtNS43NDIxODggNC4yMzgyODEgLTUuNzY1NjI1IDQuMDYyNSAtNS43NjU2MjUgQyAzLjQ1NzAzMSAtNS43NjU2MjUgMi45ODgyODEgLTUuNTY2NDA2IDIuNjU2MjUgLTUuMTcxODc1IEMgMi4zMzIwMzEgLTQuNzczNDM4IDIuMTcxODc1IC00LjIwMzEyNSAyLjE3MTg3NSAtMy40NTMxMjUgTCAyLjE3MTg3NSAwIEwgMS4wOTM3NSAwIEwgMS4wOTM3NSAtNi41NjI1IEwgMi4xNzE4NzUgLTYuNTYyNSBMIDIuMTcxODc1IC01LjU0Njg3NSBDIDIuMzk4NDM4IC01Ljk0MTQwNiAyLjY5NTMxMiAtNi4yMzQzNzUgMy4wNjI1IC02LjQyMTg3NSBDIDMuNDI1NzgxIC02LjYxNzE4OCAzLjg2NzE4OCAtNi43MTg3NSA0LjM5MDYyNSAtNi43MTg3NSBDIDQuNDYwOTM4IC02LjcxODc1IDQuNTM5MDYyIC02LjcxMDkzOCA0LjYyNSAtNi43MDMxMjUgQyA0LjcxODc1IC02LjY5MTQwNiA0LjgxNjQwNiAtNi42NzU3ODEgNC45MjE4NzUgLTYuNjU2MjUgWiBNIDQuOTM3NSAtNS41NjI1ICIvPgo8L3N5bWJvbD4KPHN5bWJvbCBvdmVyZmxvdz0idmlzaWJsZSIgaWQ9ImdseXBoMC00Ij4KPHBhdGggc3R5bGU9InN0cm9rZTpub25lOyIgZD0iTSAxLjE3MTg3NSAtOC43NSBMIDYuMjAzMTI1IC04Ljc1IEwgNi4yMDMxMjUgLTcuNzUgTCAyLjM1OTM3NSAtNy43NSBMIDIuMzU5Mzc1IC01LjE3MTg3NSBMIDUuODI4MTI1IC01LjE3MTg3NSBMIDUuODI4MTI1IC00LjE3MTg3NSBMIDIuMzU5Mzc1IC00LjE3MTg3NSBMIDIuMzU5Mzc1IDAgTCAxLjE3MTg3NSAwIFogTSAxLjE3MTg3NSAtOC43NSAiLz4KPC9zeW1ib2w+CjwvZz4KPC9kZWZzPgo8ZyBpZD0ic3VyZmFjZTE4Ij4KPHJlY3QgeD0iMCIgeT0iMCIgd2lkdGg9IjMwMCIgaGVpZ2h0PSIzMDAiIHN0eWxlPSJmaWxsOnJnYigxMDAlLDEwMCUsMTAwJSk7ZmlsbC1vcGFjaXR5OjE7c3Ryb2tlOm5vbmU7Ii8+CjxnIHN0eWxlPSJmaWxsOnJnYig1MCUsMzAlLDEwJSk7ZmlsbC1vcGFjaXR5OjE7Ij4KICA8dXNlIHhsaW5rOmhyZWY9IiNnbHlwaDAtMSIgeD0iMTI1Ljc1IiB5PSIxNTQuMTM4NjcyIi8+CiAgPHVzZSB4bGluazpocmVmPSIjZ2x5cGgwLTIiIHg9IjEzNC43NzM0MzgiIHk9IjE1NC4xMzg2NzIiLz4KICA8dXNlIHhsaW5rOmhyZWY9IiNnbHlwaDAtMyIgeD0iMTQzLjAwNTg1OSIgeT0iMTU0LjEzODY3MiIvPgo8L2c+CjxnIHN0eWxlPSJmaWxsOnJnYigyMCUsODAlLDgwJSk7ZmlsbC1vcGFjaXR5OjE7Ij4KICA8dXNlIHhsaW5rOmhyZWY9IiNnbHlwaDAtMSIgeD0iMTU0Ljc1IiB5PSIxNTQuMTM4NjcyIi8+CiAgPHVzZSB4bGluazpocmVmPSIjZ2x5cGgwLTQiIHg9IjE2My43NzM0MzgiIHk9IjE1NC4xMzg2NzIiLz4KPC9nPgo8L2c+Cjwvc3ZnPgo='
p47
sa(dp48
g2
(dp49
g4
(lp50
(dp51
g7
g8
sg9
g8
sg10
g11
sa(dp52
g7
g13
sg9
g13
sg10
g11
sasg14
(lp53
(dp54
g17
g8
sg18
g13
sassg19
g20
sg21
S'4'
p55
sg22
S'N.O'
p56
sg24
S'PD94bWwgdmVyc2lvbj0iMS4wIiBlbmNvZGluZz0iVVRGLTgiPz4KPHN2ZyB4bWxucz0iaHR0cDovL3d3dy53My5vcmcvMjAwMC9zdmciIHhtbG5zOnhsaW5rPSJodHRwOi8vd3d3LnczLm9yZy8xOTk5L3hsaW5rIiB3aWR0aD0iMzAwcHQiIGhlaWdodD0iMzAwcHQiIHZpZXdCb3g9IjAgMCAzMDAgMzAwIiB2ZXJzaW9uPSIxLjEiPgo8ZGVmcz4KPGc+CjxzeW1ib2wgb3ZlcmZsb3c9InZpc2libGUiIGlkPSJnbHlwaDAtMCI+CjxwYXRoIHN0eWxlPSJzdHJva2U6bm9uZTsiIGQ9Ik0gMC41OTM3NSAyLjEyNSBMIDAuNTkzNzUgLTguNDY4NzUgTCA2LjU5Mzc1IC04LjQ2ODc1IEwgNi41OTM3NSAyLjEyNSBaIE0gMS4yNjU2MjUgMS40NTMxMjUgTCA1LjkzNzUgMS40NTMxMjUgTCA1LjkzNzUgLTcuNzgxMjUgTCAxLjI2NTYyNSAtNy43ODEyNSBaIE0gMS4yNjU2MjUgMS40NTMxMjUgIi8+Cjwvc3ltYm9sPgo8c3ltYm9sIG92ZXJmbG93PSJ2aXNpYmxlIiBpZD0iZ2x5cGgwLTEiPgo8cGF0aCBzdHlsZT0ic3Ryb2tlOm5vbmU7IiBkPSJNIDEuMTcxODc1IC04Ljc1IEwgMi4zNTkzNzUgLTguNzUgTCAyLjM1OTM3NSAtNS4xNTYyNSBMIDYuNjU2MjUgLTUuMTU2MjUgTCA2LjY1NjI1IC04Ljc1IEwgNy44NDM3NSAtOC43NSBMIDcuODQzNzUgMCBMIDYuNjU2MjUgMCBMIDYuNjU2MjUgLTQuMTcxODc1IEwgMi4zNTkzNzUgLTQuMTcxODc1IEwgMi4zNTkzNzUgMCBMIDEuMTcxODc1IDAgWiBNIDEuMTcxODc1IC04Ljc1ICIvPgo8L3N5bWJvbD4KPHN5bWJvbCBvdmVyZmxvdz0idmlzaWJsZSIgaWQ9ImdseXBoMC0yIj4KPHBhdGggc3R5bGU9InN0cm9rZTpub25lOyIgZD0iTSA0LjczNDM3NSAtNy45NTMxMjUgQyAzLjg2NzE4OCAtNy45NTMxMjUgMy4xNzk2ODggLTcuNjI4OTA2IDIuNjcxODc1IC02Ljk4NDM3NSBDIDIuMTcxODc1IC02LjM0NzY1NiAxLjkyMTg3NSAtNS40NzI2NTYgMS45MjE4NzUgLTQuMzU5Mzc1IEMgMS45MjE4NzUgLTMuMjY1NjI1IDIuMTcxODc1IC0yLjM5NDUzMSAyLjY3MTg3NSAtMS43NSBDIDMuMTc5Njg4IC0xLjExMzI4MSAzLjg2NzE4OCAtMC43OTY4NzUgNC43MzQzNzUgLTAuNzk2ODc1IEMgNS41ODU5MzggLTAuNzk2ODc1IDYuMjY1NjI1IC0xLjExMzI4MSA2Ljc2NTYyNSAtMS43NSBDIDcuMjczNDM4IC0yLjM5NDUzMSA3LjUzMTI1IC0zLjI2NTYyNSA3LjUzMTI1IC00LjM1OTM3NSBDIDcuNTMxMjUgLTUuNDcyNjU2IDcuMjczNDM4IC02LjM0NzY1NiA2Ljc2NTYyNSAtNi45ODQzNzUgQyA2LjI2NTYyNSAtNy42Mjg5MDYgNS41ODU5MzggLTcuOTUzMTI1IDQuNzM0Mzc1IC03Ljk1MzEyNSBaIE0gNC43MzQzNzUgLTguOTA2MjUgQyA1Ljk1MzEyNSAtOC45MDYyNSA2LjkyNTc4MSAtOC40OTIxODggNy42NTYyNSAtNy42NzE4NzUgQyA4LjM5NDUzMSAtNi44NDc2NTYgOC43NjU2MjUgLTUuNzQyMTg4IDguNzY1NjI1IC00LjM1OTM3NSBDIDguNzY1NjI1IC0yLjk4NDM3NSA4LjM5NDUzMSAtMS44ODI4MTIgNy42NTYyNSAtMS4wNjI1IEMgNi45MjU3ODEgLTAuMjM4MjgxIDUuOTUzMTI1IDAuMTcxODc1IDQuNzM0Mzc1IDAuMTcxODc1IEMgMy41MDM5MDYgMC4xNzE4NzUgMi41MTk1MzEgLTAuMjM4MjgxIDEuNzgxMjUgLTEuMDYyNSBDIDEuMDM5MDYyIC0xLjg4MjgxMiAwLjY3MTg3NSAtMi45ODQzNzUgMC42NzE4NzUgLTQuMzU5Mzc1IEMgMC42NzE4NzUgLTUuNzQyMTg4IDEuMDM5MDYyIC02Ljg0NzY1NiAxLjc4MTI1IC03LjY3MTg3NSBDIDIuNTE5NTMxIC04LjQ5MjE4OCAzLjUwMzkwNiAtOC45MDYyNSA0LjczNDM3NSAtOC45MDYyNSBaIE0gNC43MzQzNzUgLTguOTA2MjUgIi8+Cjwvc3ltYm9sPgo8c3ltYm9sIG92ZXJmbG93PSJ2aXNpYmxlIiBpZD0iZ2x5cGgwLTMiPgo8cGF0aCBzdHlsZT0ic3Ryb2tlOm5vbmU7IiBkPSJNIDEuMTcxODc1IC04Ljc1IEwgMi43NjU2MjUgLTguNzUgTCA2LjY1NjI1IC0xLjQzNzUgTCA2LjY1NjI1IC04Ljc1IEwgNy43OTY4NzUgLTguNzUgTCA3Ljc5Njg3NSAwIEwgNi4yMDMxMjUgMCBMIDIuMzI4MTI1IC03LjMxMjUgTCAyLjMyODEyNSAwIEwgMS4xNzE4NzUgMCBaIE0gMS4xNzE4NzUgLTguNzUgIi8+Cjwvc3ltYm9sPgo8c3ltYm9sIG92ZXJmbG93PSJ2aXNpYmxlIiBpZD0iZ2x5cGgxLTAiPgo8cGF0aCBzdHlsZT0ic3Ryb2tlOm5vbmU7IiBkPSJNIDAuNSAxLjc2NTYyNSBMIDAuNSAtNy4wNDY4NzUgTCA1LjUgLTcuMDQ2ODc1IEwgNS41IDEuNzY1NjI1IFogTSAxLjA2MjUgMS4yMTg3NSBMIDQuOTM3NSAxLjIxODc1IEwgNC45Mzc1IC02LjQ4NDM3NSBMIDEuMDYyNSAtNi40ODQzNzUgWiBNIDEuMDYyNSAxLjIxODc1ICIvPgo8L3N5bWJvbD4KPHN5bWJvbCBvdmVyZmxvdz0idmlzaWJsZSIgaWQ9ImdseXBoMS0xIj4KPHBhdGggc3R5bGU9InN0cm9rZTpub25lOyIgZD0iTSAxLjkyMTg3NSAtMC44MjgxMjUgTCA1LjM1OTM3NSAtMC44MjgxMjUgTCA1LjM1OTM3NSAwIEwgMC43MzQzNzUgMCBMIDAuNzM0Mzc1IC0wLjgyODEyNSBDIDEuMTA5Mzc1IC0xLjIxMDkzOCAxLjYxNzE4OCAtMS43MzQzNzUgMi4yNjU2MjUgLTIuMzkwNjI1IEMgMi45MTAxNTYgLTMuMDQ2ODc1IDMuMzE2NDA2IC0zLjQ2ODc1IDMuNDg0Mzc1IC0zLjY1NjI1IEMgMy43OTY4NzUgLTQuMDA3ODEyIDQuMDE1NjI1IC00LjMwNDY4OCA0LjE0MDYyNSAtNC41NDY4NzUgQyA0LjI2NTYyNSAtNC43OTY4NzUgNC4zMjgxMjUgLTUuMDM5MDYyIDQuMzI4MTI1IC01LjI4MTI1IEMgNC4zMjgxMjUgLTUuNjY0MDYyIDQuMTkxNDA2IC01Ljk3NjU2MiAzLjkyMTg3NSAtNi4yMTg3NSBDIDMuNjQ4NDM4IC02LjQ2ODc1IDMuMjk2ODc1IC02LjU5Mzc1IDIuODU5Mzc1IC02LjU5Mzc1IEMgMi41NDY4NzUgLTYuNTkzNzUgMi4yMTg3NSAtNi41MzUxNTYgMS44NzUgLTYuNDIxODc1IEMgMS41MzkwNjIgLTYuMzE2NDA2IDEuMTc1NzgxIC02LjE1NjI1IDAuNzgxMjUgLTUuOTM3NSBMIDAuNzgxMjUgLTYuOTM3NSBDIDEuMTc1NzgxIC03LjA5Mzc1IDEuNTQ2ODc1IC03LjIxMDkzOCAxLjg5MDYyNSAtNy4yOTY4NzUgQyAyLjIzNDM3NSAtNy4zNzg5MDYgMi41NTA3ODEgLTcuNDIxODc1IDIuODQzNzUgLTcuNDIxODc1IEMgMy41OTM3NSAtNy40MjE4NzUgNC4xOTE0MDYgLTcuMjM0Mzc1IDQuNjQwNjI1IC02Ljg1OTM3NSBDIDUuMDk3NjU2IC02LjQ4NDM3NSA1LjMyODEyNSAtNS45NzY1NjIgNS4zMjgxMjUgLTUuMzQzNzUgQyA1LjMyODEyNSAtNS4wMzkwNjIgNS4yNjk1MzEgLTQuNzUzOTA2IDUuMTU2MjUgLTQuNDg0Mzc1IEMgNS4wMzkwNjIgLTQuMjIyNjU2IDQuODM1OTM4IC0zLjkxMDE1NiA0LjU0Njg3NSAtMy41NDY4NzUgQyA0LjQ2MDkzOCAtMy40NTMxMjUgNC4yMDMxMjUgLTMuMTc1NzgxIDMuNzY1NjI1IC0yLjcxODc1IEMgMy4zMjgxMjUgLTIuMjY5NTMxIDIuNzEwOTM4IC0xLjY0MDYyNSAxLjkyMTg3NSAtMC44MjgxMjUgWiBNIDEuOTIxODc1IC0wLjgyODEyNSAiLz4KPC9zeW1ib2w+CjxzeW1ib2wgb3ZlcmZsb3c9InZpc2libGUiIGlkPSJnbHlwaDEtMiI+CjxwYXRoIHN0eWxlPSJzdHJva2U6bm9uZTsiIGQ9Ik0gNC4wNjI1IC0zLjkzNzUgQyA0LjUzMTI1IC0zLjgzMjAzMSA0Ljg5NDUzMSAtMy42MTcxODggNS4xNTYyNSAtMy4yOTY4NzUgQyA1LjQyNTc4MSAtMi45ODQzNzUgNS41NjI1IC0yLjU5Mzc1IDUuNTYyNSAtMi4xMjUgQyA1LjU2MjUgLTEuNDA2MjUgNS4zMTI1IC0wLjg0NzY1NiA0LjgxMjUgLTAuNDUzMTI1IEMgNC4zMjAzMTIgLTAuMDU0Njg3NSAzLjYxNzE4OCAwLjE0MDYyNSAyLjcwMzEyNSAwLjE0MDYyNSBDIDIuMzk4NDM4IDAuMTQwNjI1IDIuMDg1OTM4IDAuMTA5Mzc1IDEuNzY1NjI1IDAuMDQ2ODc1IEMgMS40NDE0MDYgLTAuMDE1NjI1IDEuMTA5Mzc1IC0wLjEwMTU2MiAwLjc2NTYyNSAtMC4yMTg3NSBMIDAuNzY1NjI1IC0xLjE3MTg3NSBDIDEuMDM1MTU2IC0xLjAxNTYyNSAxLjMzMjAzMSAtMC44OTQ1MzEgMS42NTYyNSAtMC44MTI1IEMgMS45ODgyODEgLTAuNzI2NTYyIDIuMzMyMDMxIC0wLjY4NzUgMi42ODc1IC0wLjY4NzUgQyAzLjMwMDc4MSAtMC42ODc1IDMuNzY5NTMxIC0wLjgwNDY4OCA0LjA5Mzc1IC0xLjA0Njg3NSBDIDQuNDE0MDYyIC0xLjI5Njg3NSA0LjU3ODEyNSAtMS42NTYyNSA0LjU3ODEyNSAtMi4xMjUgQyA0LjU3ODEyNSAtMi41NTA3ODEgNC40MjU3ODEgLTIuODgyODEyIDQuMTI1IC0zLjEyNSBDIDMuODIwMzEyIC0zLjM2MzI4MSAzLjQwNjI1IC0zLjQ4NDM3NSAyLjg3NSAtMy40ODQzNzUgTCAyLjAxNTYyNSAtMy40ODQzNzUgTCAyLjAxNTYyNSAtNC4yOTY4NzUgTCAyLjkwNjI1IC00LjI5Njg3NSBDIDMuMzk0NTMxIC00LjI5Njg3NSAzLjc2NTYyNSAtNC4zOTQ1MzEgNC4wMTU2MjUgLTQuNTkzNzUgQyA0LjI3MzQzOCAtNC43ODkwNjIgNC40MDYyNSAtNS4wNzAzMTIgNC40MDYyNSAtNS40Mzc1IEMgNC40MDYyNSAtNS44MDA3ODEgNC4yNjk1MzEgLTYuMDgyMDMxIDQgLTYuMjgxMjUgQyAzLjczODI4MSAtNi40ODgyODEgMy4zNjMyODEgLTYuNTkzNzUgMi44NzUgLTYuNTkzNzUgQyAyLjYwMTU2MiAtNi41OTM3NSAyLjMxMjUgLTYuNTYyNSAyIC02LjUgQyAxLjY4NzUgLTYuNDQ1MzEyIDEuMzQ3NjU2IC02LjM1OTM3NSAwLjk4NDM3NSAtNi4yMzQzNzUgTCAwLjk4NDM3NSAtNy4xMDkzNzUgQyAxLjM1OTM3NSAtNy4yMTA5MzggMS43MDcwMzEgLTcuMjg5MDYyIDIuMDMxMjUgLTcuMzQzNzUgQyAyLjM2MzI4MSAtNy4zOTQ1MzEgMi42NzE4NzUgLTcuNDIxODc1IDIuOTUzMTI1IC03LjQyMTg3NSBDIDMuNzAzMTI1IC03LjQyMTg3NSA0LjI5Njg3NSAtNy4yNSA0LjczNDM3NSAtNi45MDYyNSBDIDUuMTcxODc1IC02LjU3MDMxMiA1LjM5MDYyNSAtNi4xMTMyODEgNS4zOTA2MjUgLTUuNTMxMjUgQyA1LjM5MDYyNSAtNS4xMjUgNS4yNzM0MzggLTQuNzgxMjUgNS4wNDY4NzUgLTQuNSBDIDQuODE2NDA2IC00LjIyNjU2MiA0LjQ4ODI4MSAtNC4wMzkwNjIgNC4wNjI1IC0zLjkzNzUgWiBNIDQuMDYyNSAtMy45Mzc1ICIvPgo8L3N5bWJvbD4KPC9nPgo8L2RlZnM+CjxnIGlkPSJzdXJmYWNlMjIiPgo8cmVjdCB4PSIwIiB5PSIwIiB3aWR0aD0iMzAwIiBoZWlnaHQ9IjMwMCIgc3R5bGU9ImZpbGw6cmdiKDEwMCUsMTAwJSwxMDAlKTtmaWxsLW9wYWNpdHk6MTtzdHJva2U6bm9uZTsiLz4KPGcgc3R5bGU9ImZpbGw6cmdiKDEwMCUsMCUsMCUpO2ZpbGwtb3BhY2l0eToxOyI+CiAgPHVzZSB4bGluazpocmVmPSIjZ2x5cGgwLTEiIHg9IjEyNC43NSIgeT0iMTU0LjEzODY3MiIvPgo8L2c+CjxnIHN0eWxlPSJmaWxsOnJnYigxMDAlLDAlLDAlKTtmaWxsLW9wYWNpdHk6MTsiPgogIDx1c2UgeGxpbms6aHJlZj0iI2dseXBoMS0xIiB4PSIxMzMuNzczNDM4IiB5PSIxNTkuMDIxNDg0Ii8+CjwvZz4KPGcgc3R5bGU9ImZpbGw6cmdiKDEwMCUsMCUsMCUpO2ZpbGwtb3BhY2l0eToxOyI+CiAgPHVzZSB4bGluazpocmVmPSIjZ2x5cGgwLTIiIHg9IjE0MC4xMzU3NDIiIHk9IjE1NC4xMzg2NzIiLz4KPC9nPgo8ZyBzdHlsZT0iZmlsbDpyZ2IoMCUsMCUsMTAwJSk7ZmlsbC1vcGFjaXR5OjE7Ij4KICA8dXNlIHhsaW5rOmhyZWY9IiNnbHlwaDAtMyIgeD0iMTUwLjI1IiB5PSIxNTQuMTM4NjcyIi8+CiAgPHVzZSB4bGluazpocmVmPSIjZ2x5cGgwLTEiIHg9IjE1OS4yMjY1NjIiIHk9IjE1NC4xMzg2NzIiLz4KPC9nPgo8ZyBzdHlsZT0iZmlsbDpyZ2IoMCUsMCUsMTAwJSk7ZmlsbC1vcGFjaXR5OjE7Ij4KICA8dXNlIHhsaW5rOmhyZWY9IiNnbHlwaDEtMiIgeD0iMTY4LjI1IiB5PSIxNTkuMDIxNDg0Ii8+CjwvZz4KPC9nPgo8L3N2Zz4K'
p57
sa(dp58
g2
(dp59
g4
(lp60
(dp61
g7
g8
sg9
g32
sg10
g11
sa(dp62
g7
g13
sg9
g20
sg10
g11
sasg14
(lp63
(dp64
g17
g8
sg18
g13
sassg19
g20
sg21
S'5'
p65
sg22
S'C=Br'
p66
sg24
S'PD94bWwgdmVyc2lvbj0iMS4wIiBlbmNvZGluZz0iVVRGLTgiPz4KPHN2ZyB4bWxucz0iaHR0cDovL3d3dy53My5vcmcvMjAwMC9zdmciIHhtbG5zOnhsaW5rPSJodHRwOi8vd3d3LnczLm9yZy8xOTk5L3hsaW5rIiB3aWR0aD0iMzAwcHQiIGhlaWdodD0iMzAwcHQiIHZpZXdCb3g9IjAgMCAzMDAgMzAwIiB2ZXJzaW9uPSIxLjEiPgo8ZGVmcz4KPGc+CjxzeW1ib2wgb3ZlcmZsb3c9InZpc2libGUiIGlkPSJnbHlwaDAtMCI+CjxwYXRoIHN0eWxlPSJzdHJva2U6bm9uZTsiIGQ9Ik0gMC41OTM3NSAyLjEyNSBMIDAuNTkzNzUgLTguNDY4NzUgTCA2LjU5Mzc1IC04LjQ2ODc1IEwgNi41OTM3NSAyLjEyNSBaIE0gMS4yNjU2MjUgMS40NTMxMjUgTCA1LjkzNzUgMS40NTMxMjUgTCA1LjkzNzUgLTcuNzgxMjUgTCAxLjI2NTYyNSAtNy43ODEyNSBaIE0gMS4yNjU2MjUgMS40NTMxMjUgIi8+Cjwvc3ltYm9sPgo8c3ltYm9sIG92ZXJmbG93PSJ2aXNpYmxlIiBpZD0iZ2x5cGgwLTEiPgo8cGF0aCBzdHlsZT0ic3Ryb2tlOm5vbmU7IiBkPSJNIDIuMzU5Mzc1IC00LjE3MTg3NSBMIDIuMzU5Mzc1IC0wLjk2ODc1IEwgNC4yNjU2MjUgLTAuOTY4NzUgQyA0Ljg5ODQzOCAtMC45Njg3NSA1LjM2NzE4OCAtMS4wOTc2NTYgNS42NzE4NzUgLTEuMzU5Mzc1IEMgNS45ODQzNzUgLTEuNjI4OTA2IDYuMTQwNjI1IC0yLjAzNTE1NiA2LjE0MDYyNSAtMi41NzgxMjUgQyA2LjE0MDYyNSAtMy4xMjg5MDYgNS45ODQzNzUgLTMuNTMxMjUgNS42NzE4NzUgLTMuNzgxMjUgQyA1LjM2NzE4OCAtNC4wMzkwNjIgNC44OTg0MzggLTQuMTcxODc1IDQuMjY1NjI1IC00LjE3MTg3NSBaIE0gMi4zNTkzNzUgLTcuNzgxMjUgTCAyLjM1OTM3NSAtNS4xNDA2MjUgTCA0LjEwOTM3NSAtNS4xNDA2MjUgQyA0LjY5MTQwNiAtNS4xNDA2MjUgNS4xMjUgLTUuMjUgNS40MDYyNSAtNS40Njg3NSBDIDUuNjg3NSAtNS42ODc1IDUuODI4MTI1IC02LjAxNTYyNSA1LjgyODEyNSAtNi40NTMxMjUgQyA1LjgyODEyNSAtNi44OTg0MzggNS42ODc1IC03LjIzNDM3NSA1LjQwNjI1IC03LjQ1MzEyNSBDIDUuMTI1IC03LjY3MTg3NSA0LjY5MTQwNiAtNy43ODEyNSA0LjEwOTM3NSAtNy43ODEyNSBaIE0gMS4xNzE4NzUgLTguNzUgTCA0LjIwMzEyNSAtOC43NSBDIDUuMTA5Mzc1IC04Ljc1IDUuODAwNzgxIC04LjU2MjUgNi4yODEyNSAtOC4xODc1IEMgNi43Njk1MzEgLTcuODEyNSA3LjAxNTYyNSAtNy4yODEyNSA3LjAxNTYyNSAtNi41OTM3NSBDIDcuMDE1NjI1IC02LjA1MDc4MSA2Ljg5MDYyNSAtNS42MTcxODggNi42NDA2MjUgLTUuMjk2ODc1IEMgNi4zOTA2MjUgLTQuOTg0Mzc1IDYuMDIzNDM4IC00Ljc4OTA2MiA1LjU0Njg3NSAtNC43MTg3NSBDIDYuMTI4OTA2IC00LjU5Mzc1IDYuNTgyMDMxIC00LjMzMjAzMSA2LjkwNjI1IC0zLjkzNzUgQyA3LjIyNjU2MiAtMy41MzkwNjIgNy4zOTA2MjUgLTMuMDQ2ODc1IDcuMzkwNjI1IC0yLjQ1MzEyNSBDIDcuMzkwNjI1IC0xLjY3MTg3NSA3LjEyNSAtMS4wNjY0MDYgNi41OTM3NSAtMC42NDA2MjUgQyA2LjA2MjUgLTAuMjEwOTM4IDUuMzAwNzgxIDAgNC4zMTI1IDAgTCAxLjE3MTg3NSAwIFogTSAxLjE3MTg3NSAtOC43NSAiLz4KPC9zeW1ib2w+CjxzeW1ib2wgb3ZlcmZsb3c9InZpc2libGUiIGlkPSJnbHlwaDAtMiI+CjxwYXRoIHN0eWxlPSJzdHJva2U6bm9uZTsiIGQ9Ik0gNC45Mzc1IC01LjU2MjUgQyA0LjgxMjUgLTUuNjI1IDQuNjc1NzgxIC01LjY3MTg3NSA0LjUzMTI1IC01LjcwMzEyNSBDIDQuMzk0NTMxIC01Ljc0MjE4OCA0LjIzODI4MSAtNS43NjU2MjUgNC4wNjI1IC01Ljc2NTYyNSBDIDMuNDU3MDMxIC01Ljc2NTYyNSAyLjk4ODI4MSAtNS41NjY0MDYgMi42NTYyNSAtNS4xNzE4NzUgQyAyLjMzMjAzMSAtNC43NzM0MzggMi4xNzE4NzUgLTQuMjAzMTI1IDIuMTcxODc1IC0zLjQ1MzEyNSBMIDIuMTcxODc1IDAgTCAxLjA5Mzc1IDAgTCAxLjA5Mzc1IC02LjU2MjUgTCAyLjE3MTg3NSAtNi41NjI1IEwgMi4xNzE4NzUgLTUuNTQ2ODc1IEMgMi4zOTg0MzggLTUuOTQxNDA2IDIuNjk1MzEyIC02LjIzNDM3NSAzLjA2MjUgLTYuNDIxODc1IEMgMy40MjU3ODEgLTYuNjE3MTg4IDMuODY3MTg4IC02LjcxODc1IDQuMzkwNjI1IC02LjcxODc1IEMgNC40NjA5MzggLTYuNzE4NzUgNC41MzkwNjIgLTYuNzEwOTM4IDQuNjI1IC02LjcwMzEyNSBDIDQuNzE4NzUgLTYuNjkxNDA2IDQuODE2NDA2IC02LjY3NTc4MSA0LjkyMTg3NSAtNi42NTYyNSBaIE0gNC45Mzc1IC01LjU2MjUgIi8+Cjwvc3ltYm9sPgo8c3ltYm9sIG92ZXJmbG93PSJ2aXNpYmxlIiBpZD0iZ2x5cGgwLTMiPgo8cGF0aCBzdHlsZT0ic3Ryb2tlOm5vbmU7IiBkPSJNIDEuMTcxODc1IC04Ljc1IEwgMi4zNTkzNzUgLTguNzUgTCAyLjM1OTM3NSAtNS4xNTYyNSBMIDYuNjU2MjUgLTUuMTU2MjUgTCA2LjY1NjI1IC04Ljc1IEwgNy44NDM3NSAtOC43NSBMIDcuODQzNzUgMCBMIDYuNjU2MjUgMCBMIDYuNjU2MjUgLTQuMTcxODc1IEwgMi4zNTkzNzUgLTQuMTcxODc1IEwgMi4zNTkzNzUgMCBMIDEuMTcxODc1IDAgWiBNIDEuMTcxODc1IC04Ljc1ICIvPgo8L3N5bWJvbD4KPC9nPgo8L2RlZnM+CjxnIGlkPSJzdXJmYWNlMjYiPgo8cmVjdCB4PSIwIiB5PSIwIiB3aWR0aD0iMzAwIiBoZWlnaHQ9IjMwMCIgc3R5bGU9ImZpbGw6cmdiKDEwMCUsMTAwJSwxMDAlKTtmaWxsLW9wYWNpdHk6MTtzdHJva2U6bm9uZTsiLz4KPGcgc3R5bGU9ImZpbGw6cmdiKDUwJSwzMCUsMTAlKTtmaWxsLW9wYWNpdHk6MTsiPgogIDx1c2UgeGxpbms6aHJlZj0iI2dseXBoMC0xIiB4PSIxNjEuNDU3MDMxIiB5PSIxNTQuMTM4NjcyIi8+CiAgPHVzZSB4bGluazpocmVmPSIjZ2x5cGgwLTIiIHg9IjE2OS42ODk0NTMiIHk9IjE1NC4xMzg2NzIiLz4KICA8dXNlIHhsaW5rOmhyZWY9IiNnbHlwaDAtMyIgeD0iMTc0LjYyMzA0NyIgeT0iMTU0LjEzODY3MiIvPgo8L2c+CjxwYXRoIHN0eWxlPSJmaWxsOm5vbmU7c3Ryb2tlLXdpZHRoOjEuMjtzdHJva2UtbGluZWNhcDpidXR0O3N0cm9rZS1saW5lam9pbjptaXRlcjtzdHJva2U6cmdiKDAlLDAlLDAlKTtzdHJva2Utb3BhY2l0eToxO3N0cm9rZS1taXRlcmxpbWl0OjEwOyIgZD0iTSAxMzAuODc1IDE1My43NSBMIDE0NS40NjQ4NDQgMTUzLjc1ICIvPgo8cGF0aCBzdHlsZT0iZmlsbDpub25lO3N0cm9rZS13aWR0aDoxLjI7c3Ryb2tlLWxpbmVjYXA6YnV0dDtzdHJva2UtbGluZWpvaW46bWl0ZXI7c3Ryb2tlOnJnYig1MCUsMzAlLDEwJSk7c3Ryb2tlLW9wYWNpdHk6MTtzdHJva2UtbWl0ZXJsaW1pdDoxMDsiIGQ9Ik0gMTQ1LjQ2NDg0NCAxNTMuNzUgTCAxNjAuMDU4NTk0IDE1My43NSAiLz4KPHBhdGggc3R5bGU9ImZpbGw6bm9uZTtzdHJva2Utd2lkdGg6MS4yO3N0cm9rZS1saW5lY2FwOmJ1dHQ7c3Ryb2tlLWxpbmVqb2luOm1pdGVyO3N0cm9rZTpyZ2IoMCUsMCUsMCUpO3N0cm9rZS1vcGFjaXR5OjE7c3Ryb2tlLW1pdGVybGltaXQ6MTA7IiBkPSJNIDEzMC44NzUgMTQ2LjI1IEwgMTQ1LjQ2NDg0NCAxNDYuMjUgIi8+CjxwYXRoIHN0eWxlPSJmaWxsOm5vbmU7c3Ryb2tlLXdpZHRoOjEuMjtzdHJva2UtbGluZWNhcDpidXR0O3N0cm9rZS1saW5lam9pbjptaXRlcjtzdHJva2U6cmdiKDUwJSwzMCUsMTAlKTtzdHJva2Utb3BhY2l0eToxO3N0cm9rZS1taXRlcmxpbWl0OjEwOyIgZD0iTSAxNDUuNDY0ODQ0IDE0Ni4yNSBMIDE2MC4wNTg1OTQgMTQ2LjI1ICIvPgo8L2c+Cjwvc3ZnPgo='
p67
sa(dp68
g2
(dp69
g4
(lp70
(dp71
g7
g8
sg9
g32
sg10
g11
sa(dp72
g7
g13
sg9
g20
sg10
g11
sa(dp73
g7
g32
sg9
g43
sg10
g11
sasg14
(lp74
(dp75
g17
g8
sg18
g13
sa(dp76
g17
g13
sg18
g32
sassg19
g20
sg21
g43
sg22
S'C=Br.F'
p77
sg24
S'PD94bWwgdmVyc2lvbj0iMS4wIiBlbmNvZGluZz0iVVRGLTgiPz4KPHN2ZyB4bWxucz0iaHR0cDovL3d3dy53My5vcmcvMjAwMC9zdmciIHhtbG5zOnhsaW5rPSJodHRwOi8vd3d3LnczLm9yZy8xOTk5L3hsaW5rIiB3aWR0aD0iMzAwcHQiIGhlaWdodD0iMzAwcHQiIHZpZXdCb3g9IjAgMCAzMDAgMzAwIiB2ZXJzaW9uPSIxLjEiPgo8ZGVmcz4KPGc+CjxzeW1ib2wgb3ZlcmZsb3c9InZpc2libGUiIGlkPSJnbHlwaDAtMCI+CjxwYXRoIHN0eWxlPSJzdHJva2U6bm9uZTsiIGQ9Ik0gMC41OTM3NSAyLjEyNSBMIDAuNTkzNzUgLTguNDY4NzUgTCA2LjU5Mzc1IC04LjQ2ODc1IEwgNi41OTM3NSAyLjEyNSBaIE0gMS4yNjU2MjUgMS40NTMxMjUgTCA1LjkzNzUgMS40NTMxMjUgTCA1LjkzNzUgLTcuNzgxMjUgTCAxLjI2NTYyNSAtNy43ODEyNSBaIE0gMS4yNjU2MjUgMS40NTMxMjUgIi8+Cjwvc3ltYm9sPgo8c3ltYm9sIG92ZXJmbG93PSJ2aXNpYmxlIiBpZD0iZ2x5cGgwLTEiPgo8cGF0aCBzdHlsZT0ic3Ryb2tlOm5vbmU7IiBkPSJNIDIuMzU5Mzc1IC00LjE3MTg3NSBMIDIuMzU5Mzc1IC0wLjk2ODc1IEwgNC4yNjU2MjUgLTAuOTY4NzUgQyA0Ljg5ODQzOCAtMC45Njg3NSA1LjM2NzE4OCAtMS4wOTc2NTYgNS42NzE4NzUgLTEuMzU5Mzc1IEMgNS45ODQzNzUgLTEuNjI4OTA2IDYuMTQwNjI1IC0yLjAzNTE1NiA2LjE0MDYyNSAtMi41NzgxMjUgQyA2LjE0MDYyNSAtMy4xMjg5MDYgNS45ODQzNzUgLTMuNTMxMjUgNS42NzE4NzUgLTMuNzgxMjUgQyA1LjM2NzE4OCAtNC4wMzkwNjIgNC44OTg0MzggLTQuMTcxODc1IDQuMjY1NjI1IC00LjE3MTg3NSBaIE0gMi4zNTkzNzUgLTcuNzgxMjUgTCAyLjM1OTM3NSAtNS4xNDA2MjUgTCA0LjEwOTM3NSAtNS4xNDA2MjUgQyA0LjY5MTQwNiAtNS4xNDA2MjUgNS4xMjUgLTUuMjUgNS40MDYyNSAtNS40Njg3NSBDIDUuNjg3NSAtNS42ODc1IDUuODI4MTI1IC02LjAxNTYyNSA1LjgyODEyNSAtNi40NTMxMjUgQyA1LjgyODEyNSAtNi44OTg0MzggNS42ODc1IC03LjIzNDM3NSA1LjQwNjI1IC03LjQ1MzEyNSBDIDUuMTI1IC03LjY3MTg3NSA0LjY5MTQwNiAtNy43ODEyNSA0LjEwOTM3NSAtNy43ODEyNSBaIE0gMS4xNzE4NzUgLTguNzUgTCA0LjIwMzEyNSAtOC43NSBDIDUuMTA5Mzc1IC04Ljc1IDUuODAwNzgxIC04LjU2MjUgNi4yODEyNSAtOC4xODc1IEMgNi43Njk1MzEgLTcuODEyNSA3LjAxNTYyNSAtNy4yODEyNSA3LjAxNTYyNSAtNi41OTM3NSBDIDcuMDE1NjI1IC02LjA1MDc4MSA2Ljg5MDYyNSAtNS42MTcxODggNi42NDA2MjUgLTUuMjk2ODc1IEMgNi4zOTA2MjUgLTQuOTg0Mzc1IDYuMDIzNDM4IC00Ljc4OTA2MiA1LjU0Njg3NSAtNC43MTg3NSBDIDYuMTI4OTA2IC00LjU5Mzc1IDYuNTgyMDMxIC00LjMzMjAzMSA2LjkwNjI1IC0zLjkzNzUgQyA3LjIyNjU2MiAtMy41MzkwNjIgNy4zOTA2MjUgLTMuMDQ2ODc1IDcuMzkwNjI1IC0yLjQ1MzEyNSBDIDcuMzkwNjI1IC0xLjY3MTg3NSA3LjEyNSAtMS4wNjY0MDYgNi41OTM3NSAtMC42NDA2MjUgQyA2LjA2MjUgLTAuMjEwOTM4IDUuMzAwNzgxIDAgNC4zMTI1IDAgTCAxLjE3MTg3NSAwIFogTSAxLjE3MTg3NSAtOC43NSAiLz4KPC9zeW1ib2w+CjxzeW1ib2wgb3ZlcmZsb3c9InZpc2libGUiIGlkPSJnbHlwaDAtMiI+CjxwYXRoIHN0eWxlPSJzdHJva2U6bm9uZTsiIGQ9Ik0gNC45Mzc1IC01LjU2MjUgQyA0LjgxMjUgLTUuNjI1IDQuNjc1NzgxIC01LjY3MTg3NSA0LjUzMTI1IC01LjcwMzEyNSBDIDQuMzk0NTMxIC01Ljc0MjE4OCA0LjIzODI4MSAtNS43NjU2MjUgNC4wNjI1IC01Ljc2NTYyNSBDIDMuNDU3MDMxIC01Ljc2NTYyNSAyLjk4ODI4MSAtNS41NjY0MDYgMi42NTYyNSAtNS4xNzE4NzUgQyAyLjMzMjAzMSAtNC43NzM0MzggMi4xNzE4NzUgLTQuMjAzMTI1IDIuMTcxODc1IC0zLjQ1MzEyNSBMIDIuMTcxODc1IDAgTCAxLjA5Mzc1IDAgTCAxLjA5Mzc1IC02LjU2MjUgTCAyLjE3MTg3NSAtNi41NjI1IEwgMi4xNzE4NzUgLTUuNTQ2ODc1IEMgMi4zOTg0MzggLTUuOTQxNDA2IDIuNjk1MzEyIC02LjIzNDM3NSAzLjA2MjUgLTYuNDIxODc1IEMgMy40MjU3ODEgLTYuNjE3MTg4IDMuODY3MTg4IC02LjcxODc1IDQuMzkwNjI1IC02LjcxODc1IEMgNC40NjA5MzggLTYuNzE4NzUgNC41MzkwNjIgLTYuNzEwOTM4IDQuNjI1IC02LjcwMzEyNSBDIDQuNzE4NzUgLTYuNjkxNDA2IDQuODE2NDA2IC02LjY3NTc4MSA0LjkyMTg3NSAtNi42NTYyNSBaIE0gNC45Mzc1IC01LjU2MjUgIi8+Cjwvc3ltYm9sPgo8c3ltYm9sIG92ZXJmbG93PSJ2aXNpYmxlIiBpZD0iZ2x5cGgwLTMiPgo8cGF0aCBzdHlsZT0ic3Ryb2tlOm5vbmU7IiBkPSJNIDEuMTcxODc1IC04Ljc1IEwgMi4zNTkzNzUgLTguNzUgTCAyLjM1OTM3NSAtNS4xNTYyNSBMIDYuNjU2MjUgLTUuMTU2MjUgTCA2LjY1NjI1IC04Ljc1IEwgNy44NDM3NSAtOC43NSBMIDcuODQzNzUgMCBMIDYuNjU2MjUgMCBMIDYuNjU2MjUgLTQuMTcxODc1IEwgMi4zNTkzNzUgLTQuMTcxODc1IEwgMi4zNTkzNzUgMCBMIDEuMTcxODc1IDAgWiBNIDEuMTcxODc1IC04Ljc1ICIvPgo8L3N5bWJvbD4KPHN5bWJvbCBvdmVyZmxvdz0idmlzaWJsZSIgaWQ9ImdseXBoMC00Ij4KPHBhdGggc3R5bGU9InN0cm9rZTpub25lOyIgZD0iTSAxLjE3MTg3NSAtOC43NSBMIDYuMjAzMTI1IC04Ljc1IEwgNi4yMDMxMjUgLTcuNzUgTCAyLjM1OTM3NSAtNy43NSBMIDIuMzU5Mzc1IC01LjE3MTg3NSBMIDUuODI4MTI1IC01LjE3MTg3NSBMIDUuODI4MTI1IC00LjE3MTg3NSBMIDIuMzU5Mzc1IC00LjE3MTg3NSBMIDIuMzU5Mzc1IDAgTCAxLjE3MTg3NSAwIFogTSAxLjE3MTg3NSAtOC43NSAiLz4KPC9zeW1ib2w+CjwvZz4KPC9kZWZzPgo8ZyBpZD0ic3VyZmFjZTMwIj4KPHJlY3QgeD0iMCIgeT0iMCIgd2lkdGg9IjMwMCIgaGVpZ2h0PSIzMDAiIHN0eWxlPSJmaWxsOnJnYigxMDAlLDEwMCUsMTAwJSk7ZmlsbC1vcGFjaXR5OjE7c3Ryb2tlOm5vbmU7Ii8+CjxnIHN0eWxlPSJmaWxsOnJnYig1MCUsMzAlLDEwJSk7ZmlsbC1vcGFjaXR5OjE7Ij4KICA8dXNlIHhsaW5rOmhyZWY9IiNnbHlwaDAtMSIgeD0iMTYxLjQ1NzAzMSIgeT0iMTY2Ljg4ODY3MiIvPgogIDx1c2UgeGxpbms6aHJlZj0iI2dseXBoMC0yIiB4PSIxNjkuNjg5NDUzIiB5PSIxNjYuODg4NjcyIi8+CiAgPHVzZSB4bGluazpocmVmPSIjZ2x5cGgwLTMiIHg9IjE3NC42MjMwNDciIHk9IjE2Ni44ODg2NzIiLz4KPC9nPgo8ZyBzdHlsZT0iZmlsbDpyZ2IoMjAlLDgwJSw4MCUpO2ZpbGwtb3BhY2l0eToxOyI+CiAgPHVzZSB4bGluazpocmVmPSIjZ2x5cGgwLTMiIHg9IjE0MiIgeT0iMTQxLjM4ODY3MiIvPgogIDx1c2UgeGxpbms6aHJlZj0iI2dseXBoMC00IiB4PSIxNTEuMDIzNDM4IiB5PSIxNDEuMzg4NjcyIi8+CjwvZz4KPHBhdGggc3R5bGU9ImZpbGw6bm9uZTtzdHJva2Utd2lkdGg6MS4yO3N0cm9rZS1saW5lY2FwOmJ1dHQ7c3Ryb2tlLWxpbmVqb2luOm1pdGVyO3N0cm9rZTpyZ2IoMCUsMCUsMCUpO3N0cm9rZS1vcGFjaXR5OjE7c3Ryb2tlLW1pdGVybGltaXQ6MTA7IiBkPSJNIDEzMC44NzUgMTY2LjUgTCAxNDUuNDY0ODQ0IDE2Ni41ICIvPgo8cGF0aCBzdHlsZT0iZmlsbDpub25lO3N0cm9rZS13aWR0aDoxLjI7c3Ryb2tlLWxpbmVjYXA6YnV0dDtzdHJva2UtbGluZWpvaW46bWl0ZXI7c3Ryb2tlOnJnYig1MCUsMzAlLDEwJSk7c3Ryb2tlLW9wYWNpdHk6MTtzdHJva2UtbWl0ZXJsaW1pdDoxMDsiIGQ9Ik0gMTQ1LjQ2NDg0NCAxNjYuNSBMIDE2MC4wNTg1OTQgMTY2LjUgIi8+CjxwYXRoIHN0eWxlPSJmaWxsOm5vbmU7c3Ryb2tlLXdpZHRoOjEuMjtzdHJva2UtbGluZWNhcDpidXR0O3N0cm9rZS1saW5lam9pbjptaXRlcjtzdHJva2U6cmdiKDAlLDAlLDAlKTtzdHJva2Utb3BhY2l0eToxO3N0cm9rZS1taXRlcmxpbWl0OjEwOyIgZD0iTSAxMzAuODc1IDE1OSBMIDE0NS40NjQ4NDQgMTU5ICIvPgo8cGF0aCBzdHlsZT0iZmlsbDpub25lO3N0cm9rZS13aWR0aDoxLjI7c3Ryb2tlLWxpbmVjYXA6YnV0dDtzdHJva2UtbGluZWpvaW46bWl0ZXI7c3Ryb2tlOnJnYig1MCUsMzAlLDEwJSk7c3Ryb2tlLW9wYWNpdHk6MTtzdHJva2UtbWl0ZXJsaW1pdDoxMDsiIGQ9Ik0gMTQ1LjQ2NDg0NCAxNTkgTCAxNjAuMDU4NTk0IDE1OSAiLz4KPC9nPgo8L3N2Zz4K'
p78
sa(dp79
g2
(dp80
g4
(lp81
(dp82
g7
g8
sg9
g32
sg10
g11
sa(dp83
g7
g13
sg9
S'7'
p84
sg10
g11
sasg14
(lp85
(dp86
g17
g8
sg18
g13
sassg19
g20
sg21
g84
sg22
S'C[Na]'
p87
sg24
S'PD94bWwgdmVyc2lvbj0iMS4wIiBlbmNvZGluZz0iVVRGLTgiPz4KPHN2ZyB4bWxucz0iaHR0cDovL3d3dy53My5vcmcvMjAwMC9zdmciIHhtbG5zOnhsaW5rPSJodHRwOi8vd3d3LnczLm9yZy8xOTk5L3hsaW5rIiB3aWR0aD0iMzAwcHQiIGhlaWdodD0iMzAwcHQiIHZpZXdCb3g9IjAgMCAzMDAgMzAwIiB2ZXJzaW9uPSIxLjEiPgo8ZGVmcz4KPGc+CjxzeW1ib2wgb3ZlcmZsb3c9InZpc2libGUiIGlkPSJnbHlwaDAtMCI+CjxwYXRoIHN0eWxlPSJzdHJva2U6bm9uZTsiIGQ9Ik0gMC41OTM3NSAyLjEyNSBMIDAuNTkzNzUgLTguNDY4NzUgTCA2LjU5Mzc1IC04LjQ2ODc1IEwgNi41OTM3NSAyLjEyNSBaIE0gMS4yNjU2MjUgMS40NTMxMjUgTCA1LjkzNzUgMS40NTMxMjUgTCA1LjkzNzUgLTcuNzgxMjUgTCAxLjI2NTYyNSAtNy43ODEyNSBaIE0gMS4yNjU2MjUgMS40NTMxMjUgIi8+Cjwvc3ltYm9sPgo8c3ltYm9sIG92ZXJmbG93PSJ2aXNpYmxlIiBpZD0iZ2x5cGgwLTEiPgo8cGF0aCBzdHlsZT0ic3Ryb2tlOm5vbmU7IiBkPSJNIDEuMTcxODc1IC04Ljc1IEwgMi43NjU2MjUgLTguNzUgTCA2LjY1NjI1IC0xLjQzNzUgTCA2LjY1NjI1IC04Ljc1IEwgNy43OTY4NzUgLTguNzUgTCA3Ljc5Njg3NSAwIEwgNi4yMDMxMjUgMCBMIDIuMzI4MTI1IC03LjMxMjUgTCAyLjMyODEyNSAwIEwgMS4xNzE4NzUgMCBaIE0gMS4xNzE4NzUgLTguNzUgIi8+Cjwvc3ltYm9sPgo8c3ltYm9sIG92ZXJmbG93PSJ2aXNpYmxlIiBpZD0iZ2x5cGgwLTIiPgo8cGF0aCBzdHlsZT0ic3Ryb2tlOm5vbmU7IiBkPSJNIDQuMTA5Mzc1IC0zLjI5Njg3NSBDIDMuMjQyMTg4IC0zLjI5Njg3NSAyLjY0MDYyNSAtMy4xOTUzMTIgMi4yOTY4NzUgLTMgQyAxLjk2MDkzOCAtMi44MDA3ODEgMS43OTY4NzUgLTIuNDYwOTM4IDEuNzk2ODc1IC0xLjk4NDM3NSBDIDEuNzk2ODc1IC0xLjU5NzY1NiAxLjkyMTg3NSAtMS4yODkwNjIgMi4xNzE4NzUgLTEuMDYyNSBDIDIuNDI5Njg4IC0wLjg0Mzc1IDIuNzczNDM4IC0wLjczNDM3NSAzLjIwMzEyNSAtMC43MzQzNzUgQyAzLjgwNDY4OCAtMC43MzQzNzUgNC4yODUxNTYgLTAuOTQxNDA2IDQuNjQwNjI1IC0xLjM1OTM3NSBDIDUuMDAzOTA2IC0xLjc4NTE1NiA1LjE4NzUgLTIuMzUxNTYyIDUuMTg3NSAtMy4wNjI1IEwgNS4xODc1IC0zLjI5Njg3NSBaIE0gNi4yNjU2MjUgLTMuNzUgTCA2LjI2NTYyNSAwIEwgNS4xODc1IDAgTCA1LjE4NzUgLTEgQyA0LjkzNzUgLTAuNjAxNTYyIDQuNjI4OTA2IC0wLjMwNDY4OCA0LjI2NTYyNSAtMC4xMDkzNzUgQyAzLjg5ODQzOCAwLjA3ODEyNSAzLjQ1MzEyNSAwLjE3MTg3NSAyLjkyMTg3NSAwLjE3MTg3NSBDIDIuMjQyMTg4IDAuMTcxODc1IDEuNzA3MDMxIC0wLjAxNTYyNSAxLjMxMjUgLTAuMzkwNjI1IEMgMC45MTQwNjIgLTAuNzczNDM4IDAuNzE4NzUgLTEuMjgxMjUgMC43MTg3NSAtMS45MDYyNSBDIDAuNzE4NzUgLTIuNjQ0NTMxIDAuOTYwOTM4IC0zLjIwMzEyNSAxLjQ1MzEyNSAtMy41NzgxMjUgQyAxLjk1MzEyNSAtMy45NTMxMjUgMi42OTE0MDYgLTQuMTQwNjI1IDMuNjcxODc1IC00LjE0MDYyNSBMIDUuMTg3NSAtNC4xNDA2MjUgTCA1LjE4NzUgLTQuMjUgQyA1LjE4NzUgLTQuNzUgNS4wMTk1MzEgLTUuMTMyODEyIDQuNjg3NSAtNS40MDYyNSBDIDQuMzYzMjgxIC01LjY3NTc4MSAzLjkxMDE1NiAtNS44MTI1IDMuMzI4MTI1IC01LjgxMjUgQyAyLjk1MzEyNSAtNS44MTI1IDIuNTgyMDMxIC01Ljc2NTYyNSAyLjIxODc1IC01LjY3MTg3NSBDIDEuODYzMjgxIC01LjU3ODEyNSAxLjUyMzQzOCAtNS40NDE0MDYgMS4yMDMxMjUgLTUuMjY1NjI1IEwgMS4yMDMxMjUgLTYuMjY1NjI1IEMgMS41OTc2NTYgLTYuNDIxODc1IDEuOTc2NTYyIC02LjUzNTE1NiAyLjM0Mzc1IC02LjYwOTM3NSBDIDIuNzE4NzUgLTYuNjc5Njg4IDMuMDgyMDMxIC02LjcxODc1IDMuNDM3NSAtNi43MTg3NSBDIDQuMzgyODEyIC02LjcxODc1IDUuMDkzNzUgLTYuNDcyNjU2IDUuNTYyNSAtNS45ODQzNzUgQyA2LjAzMTI1IC01LjQ5MjE4OCA2LjI2NTYyNSAtNC43NSA2LjI2NTYyNSAtMy43NSBaIE0gNi4yNjU2MjUgLTMuNzUgIi8+Cjwvc3ltYm9sPgo8c3ltYm9sIG92ZXJmbG93PSJ2aXNpYmxlIiBpZD0iZ2x5cGgwLTMiPgo8cGF0aCBzdHlsZT0ic3Ryb2tlOm5vbmU7IiBkPSJNIDEuMTcxODc1IC04Ljc1IEwgMi4zNTkzNzUgLTguNzUgTCAyLjM1OTM3NSAtNS4xNTYyNSBMIDYuNjU2MjUgLTUuMTU2MjUgTCA2LjY1NjI1IC04Ljc1IEwgNy44NDM3NSAtOC43NSBMIDcuODQzNzUgMCBMIDYuNjU2MjUgMCBMIDYuNjU2MjUgLTQuMTcxODc1IEwgMi4zNTkzNzUgLTQuMTcxODc1IEwgMi4zNTkzNzUgMCBMIDEuMTcxODc1IDAgWiBNIDEuMTcxODc1IC04Ljc1ICIvPgo8L3N5bWJvbD4KPC9nPgo8L2RlZnM+CjxnIGlkPSJzdXJmYWNlMzQiPgo8cmVjdCB4PSIwIiB5PSIwIiB3aWR0aD0iMzAwIiBoZWlnaHQ9IjMwMCIgc3R5bGU9ImZpbGw6cmdiKDEwMCUsMTAwJSwxMDAlKTtmaWxsLW9wYWNpdHk6MTtzdHJva2U6bm9uZTsiLz4KPGcgc3R5bGU9ImZpbGw6cmdiKDAlLDAlLDAlKTtmaWxsLW9wYWNpdHk6MTsiPgogIDx1c2UgeGxpbms6aHJlZj0iI2dseXBoMC0xIiB4PSIxNjAuNDU3MDMxIiB5PSIxNTQuMTM4NjcyIi8+CiAgPHVzZSB4bGluazpocmVmPSIjZ2x5cGgwLTIiIHg9IjE2OS40MzM1OTQiIHk9IjE1NC4xMzg2NzIiLz4KICA8dXNlIHhsaW5rOmhyZWY9IiNnbHlwaDAtMyIgeD0iMTc2Ljc4NzEwOSIgeT0iMTU0LjEzODY3MiIvPgo8L2c+CjxwYXRoIHN0eWxlPSJmaWxsOm5vbmU7c3Ryb2tlLXdpZHRoOjEuMjtzdHJva2UtbGluZWNhcDpidXR0O3N0cm9rZS1saW5lam9pbjptaXRlcjtzdHJva2U6cmdiKDAlLDAlLDAlKTtzdHJva2Utb3BhY2l0eToxO3N0cm9rZS1taXRlcmxpbWl0OjEwOyIgZD0iTSAxMzAuODc1IDE1MCBMIDE1OS4wNTg1OTQgMTUwICIvPgo8L2c+Cjwvc3ZnPgo='
p88
sa(dp89
g2
(dp90
g4
(lp91
(dp92
g7
g8
sg9
g32
sg10
g11
sa(dp93
g7
g13
sg9
g84
sg10
g11
sa(dp94
g7
g32
sg9
g32
sg10
g11
sasg14
(lp95
(dp96
g17
g8
sg18
g13
sa(dp97
g17
g13
sg18
g32
sassg19
g20
sg21
S'8'
p98
sg22
S'C=[Na]C'
p99
sg24
S'PD94bWwgdmVyc2lvbj0iMS4wIiBlbmNvZGluZz0iVVRGLTgiPz4KPHN2ZyB4bWxucz0iaHR0cDovL3d3dy53My5vcmcvMjAwMC9zdmciIHhtbG5zOnhsaW5rPSJodHRwOi8vd3d3LnczLm9yZy8xOTk5L3hsaW5rIiB3aWR0aD0iMzAwcHQiIGhlaWdodD0iMzAwcHQiIHZpZXdCb3g9IjAgMCAzMDAgMzAwIiB2ZXJzaW9uPSIxLjEiPgo8ZGVmcz4KPGc+CjxzeW1ib2wgb3ZlcmZsb3c9InZpc2libGUiIGlkPSJnbHlwaDAtMCI+CjxwYXRoIHN0eWxlPSJzdHJva2U6bm9uZTsiIGQ9Ik0gMC41OTM3NSAyLjEyNSBMIDAuNTkzNzUgLTguNDY4NzUgTCA2LjU5Mzc1IC04LjQ2ODc1IEwgNi41OTM3NSAyLjEyNSBaIE0gMS4yNjU2MjUgMS40NTMxMjUgTCA1LjkzNzUgMS40NTMxMjUgTCA1LjkzNzUgLTcuNzgxMjUgTCAxLjI2NTYyNSAtNy43ODEyNSBaIE0gMS4yNjU2MjUgMS40NTMxMjUgIi8+Cjwvc3ltYm9sPgo8c3ltYm9sIG92ZXJmbG93PSJ2aXNpYmxlIiBpZD0iZ2x5cGgwLTEiPgo8cGF0aCBzdHlsZT0ic3Ryb2tlOm5vbmU7IiBkPSJNIDEuMTcxODc1IC04Ljc1IEwgMi43NjU2MjUgLTguNzUgTCA2LjY1NjI1IC0xLjQzNzUgTCA2LjY1NjI1IC04Ljc1IEwgNy43OTY4NzUgLTguNzUgTCA3Ljc5Njg3NSAwIEwgNi4yMDMxMjUgMCBMIDIuMzI4MTI1IC03LjMxMjUgTCAyLjMyODEyNSAwIEwgMS4xNzE4NzUgMCBaIE0gMS4xNzE4NzUgLTguNzUgIi8+Cjwvc3ltYm9sPgo8c3ltYm9sIG92ZXJmbG93PSJ2aXNpYmxlIiBpZD0iZ2x5cGgwLTIiPgo8cGF0aCBzdHlsZT0ic3Ryb2tlOm5vbmU7IiBkPSJNIDQuMTA5Mzc1IC0zLjI5Njg3NSBDIDMuMjQyMTg4IC0zLjI5Njg3NSAyLjY0MDYyNSAtMy4xOTUzMTIgMi4yOTY4NzUgLTMgQyAxLjk2MDkzOCAtMi44MDA3ODEgMS43OTY4NzUgLTIuNDYwOTM4IDEuNzk2ODc1IC0xLjk4NDM3NSBDIDEuNzk2ODc1IC0xLjU5NzY1NiAxLjkyMTg3NSAtMS4yODkwNjIgMi4xNzE4NzUgLTEuMDYyNSBDIDIuNDI5Njg4IC0wLjg0Mzc1IDIuNzczNDM4IC0wLjczNDM3NSAzLjIwMzEyNSAtMC43MzQzNzUgQyAzLjgwNDY4OCAtMC43MzQzNzUgNC4yODUxNTYgLTAuOTQxNDA2IDQuNjQwNjI1IC0xLjM1OTM3NSBDIDUuMDAzOTA2IC0xLjc4NTE1NiA1LjE4NzUgLTIuMzUxNTYyIDUuMTg3NSAtMy4wNjI1IEwgNS4xODc1IC0zLjI5Njg3NSBaIE0gNi4yNjU2MjUgLTMuNzUgTCA2LjI2NTYyNSAwIEwgNS4xODc1IDAgTCA1LjE4NzUgLTEgQyA0LjkzNzUgLTAuNjAxNTYyIDQuNjI4OTA2IC0wLjMwNDY4OCA0LjI2NTYyNSAtMC4xMDkzNzUgQyAzLjg5ODQzOCAwLjA3ODEyNSAzLjQ1MzEyNSAwLjE3MTg3NSAyLjkyMTg3NSAwLjE3MTg3NSBDIDIuMjQyMTg4IDAuMTcxODc1IDEuNzA3MDMxIC0wLjAxNTYyNSAxLjMxMjUgLTAuMzkwNjI1IEMgMC45MTQwNjIgLTAuNzczNDM4IDAuNzE4NzUgLTEuMjgxMjUgMC43MTg3NSAtMS45MDYyNSBDIDAuNzE4NzUgLTIuNjQ0NTMxIDAuOTYwOTM4IC0zLjIwMzEyNSAxLjQ1MzEyNSAtMy41NzgxMjUgQyAxLjk1MzEyNSAtMy45NTMxMjUgMi42OTE0MDYgLTQuMTQwNjI1IDMuNjcxODc1IC00LjE0MDYyNSBMIDUuMTg3NSAtNC4xNDA2MjUgTCA1LjE4NzUgLTQuMjUgQyA1LjE4NzUgLTQuNzUgNS4wMTk1MzEgLTUuMTMyODEyIDQuNjg3NSAtNS40MDYyNSBDIDQuMzYzMjgxIC01LjY3NTc4MSAzLjkxMDE1NiAtNS44MTI1IDMuMzI4MTI1IC01LjgxMjUgQyAyLjk1MzEyNSAtNS44MTI1IDIuNTgyMDMxIC01Ljc2NTYyNSAyLjIxODc1IC01LjY3MTg3NSBDIDEuODYzMjgxIC01LjU3ODEyNSAxLjUyMzQzOCAtNS40NDE0MDYgMS4yMDMxMjUgLTUuMjY1NjI1IEwgMS4yMDMxMjUgLTYuMjY1NjI1IEMgMS41OTc2NTYgLTYuNDIxODc1IDEuOTc2NTYyIC02LjUzNTE1NiAyLjM0Mzc1IC02LjYwOTM3NSBDIDIuNzE4NzUgLTYuNjc5Njg4IDMuMDgyMDMxIC02LjcxODc1IDMuNDM3NSAtNi43MTg3NSBDIDQuMzgyODEyIC02LjcxODc1IDUuMDkzNzUgLTYuNDcyNjU2IDUuNTYyNSAtNS45ODQzNzUgQyA2LjAzMTI1IC01LjQ5MjE4OCA2LjI2NTYyNSAtNC43NSA2LjI2NTYyNSAtMy43NSBaIE0gNi4yNjU2MjUgLTMuNzUgIi8+Cjwvc3ltYm9sPgo8c3ltYm9sIG92ZXJmbG93PSJ2aXNpYmxlIiBpZD0iZ2x5cGgwLTMiPgo8cGF0aCBzdHlsZT0ic3Ryb2tlOm5vbmU7IiBkPSJNIDEuMTcxODc1IC04Ljc1IEwgMi4zNTkzNzUgLTguNzUgTCAyLjM1OTM3NSAtNS4xNTYyNSBMIDYuNjU2MjUgLTUuMTU2MjUgTCA2LjY1NjI1IC04Ljc1IEwgNy44NDM3NSAtOC43NSBMIDcuODQzNzUgMCBMIDYuNjU2MjUgMCBMIDYuNjU2MjUgLTQuMTcxODc1IEwgMi4zNTkzNzUgLTQuMTcxODc1IEwgMi4zNTkzNzUgMCBMIDEuMTcxODc1IDAgWiBNIDEuMTcxODc1IC04Ljc1ICIvPgo8L3N5bWJvbD4KPC9nPgo8L2RlZnM+CjxnIGlkPSJzdXJmYWNlMzgiPgo8cmVjdCB4PSIwIiB5PSIwIiB3aWR0aD0iMzAwIiBoZWlnaHQ9IjMwMCIgc3R5bGU9ImZpbGw6cmdiKDEwMCUsMTAwJSwxMDAlKTtmaWxsLW9wYWNpdHk6MTtzdHJva2U6bm9uZTsiLz4KPGcgc3R5bGU9ImZpbGw6cmdiKDAlLDAlLDAlKTtmaWxsLW9wYWNpdHk6MTsiPgogIDx1c2UgeGxpbms6aHJlZj0iI2dseXBoMC0xIiB4PSIxNDEuMzMyMDMxIiB5PSIxNDQuNTc2MTcyIi8+CiAgPHVzZSB4bGluazpocmVmPSIjZ2x5cGgwLTIiIHg9IjE1MC4zMDg1OTQiIHk9IjE0NC41NzYxNzIiLz4KICA8dXNlIHhsaW5rOmhyZWY9IiNnbHlwaDAtMyIgeD0iMTU3LjY2MjEwOSIgeT0iMTQ0LjU3NjE3MiIvPgo8L2c+CjxwYXRoIHN0eWxlPSJmaWxsOm5vbmU7c3Ryb2tlLXdpZHRoOjEuMjtzdHJva2UtbGluZWNhcDpidXR0O3N0cm9rZS1saW5lam9pbjptaXRlcjtzdHJva2U6cmdiKDAlLDAlLDAlKTtzdHJva2Utb3BhY2l0eToxO3N0cm9rZS1taXRlcmxpbWl0OjEwOyIgZD0iTSAxMTYuODc1IDE1OS41NjI1IEwgMTM5LjkzMzU5NCAxNDYuMjUgIi8+CjxwYXRoIHN0eWxlPSJmaWxsOm5vbmU7c3Ryb2tlLXdpZHRoOjEuMjtzdHJva2UtbGluZWNhcDpidXR0O3N0cm9rZS1saW5lam9pbjptaXRlcjtzdHJva2U6cmdiKDAlLDAlLDAlKTtzdHJva2Utb3BhY2l0eToxO3N0cm9rZS1taXRlcmxpbWl0OjEwOyIgZD0iTSAxNjMuODg2NzE5IDE1Mi43ODUxNTYgTCAxODEuMjUgMTYyLjgwODU5NCAiLz4KPHBhdGggc3R5bGU9ImZpbGw6bm9uZTtzdHJva2Utd2lkdGg6MS4yO3N0cm9rZS1saW5lY2FwOmJ1dHQ7c3Ryb2tlLWxpbmVqb2luOm1pdGVyO3N0cm9rZTpyZ2IoMCUsMCUsMCUpO3N0cm9rZS1vcGFjaXR5OjE7c3Ryb2tlLW1pdGVybGltaXQ6MTA7IiBkPSJNIDE2Ny42MzY3MTkgMTQ2LjI4OTA2MiBMIDE4NSAxNTYuMzE2NDA2ICIvPgo8L2c+Cjwvc3ZnPgo='
p100
sa(dp101
g2
(dp102
g4
(lp103
(dp104
g7
g8
sg9
g13
sg10
g11
sa(dp105
g7
g13
sg9
g32
sg10
g11
sasg14
(lp106
(dp107
g17
g8
sg18
g13
sassg19
g65
sg21
S'9'
p108
sg22
S'CN'
p109
sg24
S'PD94bWwgdmVyc2lvbj0iMS4wIiBlbmNvZGluZz0iVVRGLTgiPz4KPHN2ZyB4bWxucz0iaHR0cDovL3d3dy53My5vcmcvMjAwMC9zdmciIHhtbG5zOnhsaW5rPSJodHRwOi8vd3d3LnczLm9yZy8xOTk5L3hsaW5rIiB3aWR0aD0iMzAwcHQiIGhlaWdodD0iMzAwcHQiIHZpZXdCb3g9IjAgMCAzMDAgMzAwIiB2ZXJzaW9uPSIxLjEiPgo8ZGVmcz4KPGc+CjxzeW1ib2wgb3ZlcmZsb3c9InZpc2libGUiIGlkPSJnbHlwaDAtMCI+CjxwYXRoIHN0eWxlPSJzdHJva2U6bm9uZTsiIGQ9Ik0gMC41OTM3NSAyLjEyNSBMIDAuNTkzNzUgLTguNDY4NzUgTCA2LjU5Mzc1IC04LjQ2ODc1IEwgNi41OTM3NSAyLjEyNSBaIE0gMS4yNjU2MjUgMS40NTMxMjUgTCA1LjkzNzUgMS40NTMxMjUgTCA1LjkzNzUgLTcuNzgxMjUgTCAxLjI2NTYyNSAtNy43ODEyNSBaIE0gMS4yNjU2MjUgMS40NTMxMjUgIi8+Cjwvc3ltYm9sPgo8c3ltYm9sIG92ZXJmbG93PSJ2aXNpYmxlIiBpZD0iZ2x5cGgwLTEiPgo8cGF0aCBzdHlsZT0ic3Ryb2tlOm5vbmU7IiBkPSJNIDEuMTcxODc1IC04Ljc1IEwgMi4zNTkzNzUgLTguNzUgTCAyLjM1OTM3NSAtNS4xNTYyNSBMIDYuNjU2MjUgLTUuMTU2MjUgTCA2LjY1NjI1IC04Ljc1IEwgNy44NDM3NSAtOC43NSBMIDcuODQzNzUgMCBMIDYuNjU2MjUgMCBMIDYuNjU2MjUgLTQuMTcxODc1IEwgMi4zNTkzNzUgLTQuMTcxODc1IEwgMi4zNTkzNzUgMCBMIDEuMTcxODc1IDAgWiBNIDEuMTcxODc1IC04Ljc1ICIvPgo8L3N5bWJvbD4KPHN5bWJvbCBvdmVyZmxvdz0idmlzaWJsZSIgaWQ9ImdseXBoMC0yIj4KPHBhdGggc3R5bGU9InN0cm9rZTpub25lOyIgZD0iTSAxLjE3MTg3NSAtOC43NSBMIDIuNzY1NjI1IC04Ljc1IEwgNi42NTYyNSAtMS40Mzc1IEwgNi42NTYyNSAtOC43NSBMIDcuNzk2ODc1IC04Ljc1IEwgNy43OTY4NzUgMCBMIDYuMjAzMTI1IDAgTCAyLjMyODEyNSAtNy4zMTI1IEwgMi4zMjgxMjUgMCBMIDEuMTcxODc1IDAgWiBNIDEuMTcxODc1IC04Ljc1ICIvPgo8L3N5bWJvbD4KPHN5bWJvbCBvdmVyZmxvdz0idmlzaWJsZSIgaWQ9ImdseXBoMS0wIj4KPHBhdGggc3R5bGU9InN0cm9rZTpub25lOyIgZD0iTSAwLjUgMS43NjU2MjUgTCAwLjUgLTcuMDQ2ODc1IEwgNS41IC03LjA0Njg3NSBMIDUuNSAxLjc2NTYyNSBaIE0gMS4wNjI1IDEuMjE4NzUgTCA0LjkzNzUgMS4yMTg3NSBMIDQuOTM3NSAtNi40ODQzNzUgTCAxLjA2MjUgLTYuNDg0Mzc1IFogTSAxLjA2MjUgMS4yMTg3NSAiLz4KPC9zeW1ib2w+CjxzeW1ib2wgb3ZlcmZsb3c9InZpc2libGUiIGlkPSJnbHlwaDEtMSI+CjxwYXRoIHN0eWxlPSJzdHJva2U6bm9uZTsiIGQ9Ik0gNC4wNjI1IC0zLjkzNzUgQyA0LjUzMTI1IC0zLjgzMjAzMSA0Ljg5NDUzMSAtMy42MTcxODggNS4xNTYyNSAtMy4yOTY4NzUgQyA1LjQyNTc4MSAtMi45ODQzNzUgNS41NjI1IC0yLjU5Mzc1IDUuNTYyNSAtMi4xMjUgQyA1LjU2MjUgLTEuNDA2MjUgNS4zMTI1IC0wLjg0NzY1NiA0LjgxMjUgLTAuNDUzMTI1IEMgNC4zMjAzMTIgLTAuMDU0Njg3NSAzLjYxNzE4OCAwLjE0MDYyNSAyLjcwMzEyNSAwLjE0MDYyNSBDIDIuMzk4NDM4IDAuMTQwNjI1IDIuMDg1OTM4IDAuMTA5Mzc1IDEuNzY1NjI1IDAuMDQ2ODc1IEMgMS40NDE0MDYgLTAuMDE1NjI1IDEuMTA5Mzc1IC0wLjEwMTU2MiAwLjc2NTYyNSAtMC4yMTg3NSBMIDAuNzY1NjI1IC0xLjE3MTg3NSBDIDEuMDM1MTU2IC0xLjAxNTYyNSAxLjMzMjAzMSAtMC44OTQ1MzEgMS42NTYyNSAtMC44MTI1IEMgMS45ODgyODEgLTAuNzI2NTYyIDIuMzMyMDMxIC0wLjY4NzUgMi42ODc1IC0wLjY4NzUgQyAzLjMwMDc4MSAtMC42ODc1IDMuNzY5NTMxIC0wLjgwNDY4OCA0LjA5Mzc1IC0xLjA0Njg3NSBDIDQuNDE0MDYyIC0xLjI5Njg3NSA0LjU3ODEyNSAtMS42NTYyNSA0LjU3ODEyNSAtMi4xMjUgQyA0LjU3ODEyNSAtMi41NTA3ODEgNC40MjU3ODEgLTIuODgyODEyIDQuMTI1IC0zLjEyNSBDIDMuODIwMzEyIC0zLjM2MzI4MSAzLjQwNjI1IC0zLjQ4NDM3NSAyLjg3NSAtMy40ODQzNzUgTCAyLjAxNTYyNSAtMy40ODQzNzUgTCAyLjAxNTYyNSAtNC4yOTY4NzUgTCAyLjkwNjI1IC00LjI5Njg3NSBDIDMuMzk0NTMxIC00LjI5Njg3NSAzLjc2NTYyNSAtNC4zOTQ1MzEgNC4wMTU2MjUgLTQuNTkzNzUgQyA0LjI3MzQzOCAtNC43ODkwNjIgNC40MDYyNSAtNS4wNzAzMTIgNC40MDYyNSAtNS40Mzc1IEMgNC40MDYyNSAtNS44MDA3ODEgNC4yNjk1MzEgLTYuMDgyMDMxIDQgLTYuMjgxMjUgQyAzLjczODI4MSAtNi40ODgyODEgMy4zNjMyODEgLTYuNTkzNzUgMi44NzUgLTYuNTkzNzUgQyAyLjYwMTU2MiAtNi41OTM3NSAyLjMxMjUgLTYuNTYyNSAyIC02LjUgQyAxLjY4NzUgLTYuNDQ1MzEyIDEuMzQ3NjU2IC02LjM1OTM3NSAwLjk4NDM3NSAtNi4yMzQzNzUgTCAwLjk4NDM3NSAtNy4xMDkzNzUgQyAxLjM1OTM3NSAtNy4yMTA5MzggMS43MDcwMzEgLTcuMjg5MDYyIDIuMDMxMjUgLTcuMzQzNzUgQyAyLjM2MzI4MSAtNy4zOTQ1MzEgMi42NzE4NzUgLTcuNDIxODc1IDIuOTUzMTI1IC03LjQyMTg3NSBDIDMuNzAzMTI1IC03LjQyMTg3NSA0LjI5Njg3NSAtNy4yNSA0LjczNDM3NSAtNi45MDYyNSBDIDUuMTcxODc1IC02LjU3MDMxMiA1LjM5MDYyNSAtNi4xMTMyODEgNS4zOTA2MjUgLTUuNTMxMjUgQyA1LjM5MDYyNSAtNS4xMjUgNS4yNzM0MzggLTQuNzgxMjUgNS4wNDY4NzUgLTQuNSBDIDQuODE2NDA2IC00LjIyNjU2MiA0LjQ4ODI4MSAtNC4wMzkwNjIgNC4wNjI1IC0zLjkzNzUgWiBNIDQuMDYyNSAtMy45Mzc1ICIvPgo8L3N5bWJvbD4KPC9nPgo8L2RlZnM+CjxnIGlkPSJzdXJmYWNlNDIiPgo8cmVjdCB4PSIwIiB5PSIwIiB3aWR0aD0iMzAwIiBoZWlnaHQ9IjMwMCIgc3R5bGU9ImZpbGw6cmdiKDEwMCUsMTAwJSwxMDAlKTtmaWxsLW9wYWNpdHk6MTtzdHJva2U6bm9uZTsiLz4KPGcgc3R5bGU9ImZpbGw6cmdiKDAlLDAlLDEwMCUpO2ZpbGwtb3BhY2l0eToxOyI+CiAgPHVzZSB4bGluazpocmVmPSIjZ2x5cGgwLTEiIHg9IjExMC4wNDI5NjkiIHk9IjE1NC4xMzg2NzIiLz4KPC9nPgo8ZyBzdHlsZT0iZmlsbDpyZ2IoMCUsMCUsMTAwJSk7ZmlsbC1vcGFjaXR5OjE7Ij4KICA8dXNlIHhsaW5rOmhyZWY9IiNnbHlwaDEtMSIgeD0iMTE5LjA2NjQwNiIgeT0iMTU5LjAyMTQ4NCIvPgo8L2c+CjxnIHN0eWxlPSJmaWxsOnJnYigwJSwwJSwxMDAlKTtmaWxsLW9wYWNpdHk6MTsiPgogIDx1c2UgeGxpbms6aHJlZj0iI2dseXBoMC0yIiB4PSIxMjUuNDI4NzExIiB5PSIxNTQuMTM4NjcyIi8+CjwvZz4KPHBhdGggc3R5bGU9ImZpbGw6bm9uZTtzdHJva2Utd2lkdGg6MS4yO3N0cm9rZS1saW5lY2FwOmJ1dHQ7c3Ryb2tlLWxpbmVqb2luOm1pdGVyO3N0cm9rZTpyZ2IoMCUsMCUsMTAwJSk7c3Ryb2tlLW9wYWNpdHk6MTtzdHJva2UtbWl0ZXJsaW1pdDoxMDsiIGQ9Ik0gMTM2LjQ0MTQwNiAxNTAgTCAxNTIuNzg1MTU2IDE1MCAiLz4KPHBhdGggc3R5bGU9ImZpbGw6bm9uZTtzdHJva2Utd2lkdGg6MS4yO3N0cm9rZS1saW5lY2FwOmJ1dHQ7c3Ryb2tlLWxpbmVqb2luOm1pdGVyO3N0cm9rZTpyZ2IoMCUsMCUsMCUpO3N0cm9rZS1vcGFjaXR5OjE7c3Ryb2tlLW1pdGVybGltaXQ6MTA7IiBkPSJNIDE1Mi43ODUxNTYgMTUwIEwgMTY5LjEyNSAxNTAgIi8+CjwvZz4KPC9zdmc+Cg=='
p110
sa(dp111
g2
(dp112
g4
(lp113
(dp114
g7
g8
sg9
g13
sg10
g11
sa(dp115
g7
g13
sg9
g20
sg10
g11
sasg14
(lp116
(dp117
g17
g8
sg18
g13
sassg19
g20
sg21
S'10'
p118
sg22
S'NBr'
p119
sg24
S'PD94bWwgdmVyc2lvbj0iMS4wIiBlbmNvZGluZz0iVVRGLTgiPz4KPHN2ZyB4bWxucz0iaHR0cDovL3d3dy53My5vcmcvMjAwMC9zdmciIHhtbG5zOnhsaW5rPSJodHRwOi8vd3d3LnczLm9yZy8xOTk5L3hsaW5rIiB3aWR0aD0iMzAwcHQiIGhlaWdodD0iMzAwcHQiIHZpZXdCb3g9IjAgMCAzMDAgMzAwIiB2ZXJzaW9uPSIxLjEiPgo8ZGVmcz4KPGc+CjxzeW1ib2wgb3ZlcmZsb3c9InZpc2libGUiIGlkPSJnbHlwaDAtMCI+CjxwYXRoIHN0eWxlPSJzdHJva2U6bm9uZTsiIGQ9Ik0gMC41OTM3NSAyLjEyNSBMIDAuNTkzNzUgLTguNDY4NzUgTCA2LjU5Mzc1IC04LjQ2ODc1IEwgNi41OTM3NSAyLjEyNSBaIE0gMS4yNjU2MjUgMS40NTMxMjUgTCA1LjkzNzUgMS40NTMxMjUgTCA1LjkzNzUgLTcuNzgxMjUgTCAxLjI2NTYyNSAtNy43ODEyNSBaIE0gMS4yNjU2MjUgMS40NTMxMjUgIi8+Cjwvc3ltYm9sPgo8c3ltYm9sIG92ZXJmbG93PSJ2aXNpYmxlIiBpZD0iZ2x5cGgwLTEiPgo8cGF0aCBzdHlsZT0ic3Ryb2tlOm5vbmU7IiBkPSJNIDEuMTcxODc1IC04Ljc1IEwgMi4zNTkzNzUgLTguNzUgTCAyLjM1OTM3NSAtNS4xNTYyNSBMIDYuNjU2MjUgLTUuMTU2MjUgTCA2LjY1NjI1IC04Ljc1IEwgNy44NDM3NSAtOC43NSBMIDcuODQzNzUgMCBMIDYuNjU2MjUgMCBMIDYuNjU2MjUgLTQuMTcxODc1IEwgMi4zNTkzNzUgLTQuMTcxODc1IEwgMi4zNTkzNzUgMCBMIDEuMTcxODc1IDAgWiBNIDEuMTcxODc1IC04Ljc1ICIvPgo8L3N5bWJvbD4KPHN5bWJvbCBvdmVyZmxvdz0idmlzaWJsZSIgaWQ9ImdseXBoMC0yIj4KPHBhdGggc3R5bGU9InN0cm9rZTpub25lOyIgZD0iTSAxLjE3MTg3NSAtOC43NSBMIDIuNzY1NjI1IC04Ljc1IEwgNi42NTYyNSAtMS40Mzc1IEwgNi42NTYyNSAtOC43NSBMIDcuNzk2ODc1IC04Ljc1IEwgNy43OTY4NzUgMCBMIDYuMjAzMTI1IDAgTCAyLjMyODEyNSAtNy4zMTI1IEwgMi4zMjgxMjUgMCBMIDEuMTcxODc1IDAgWiBNIDEuMTcxODc1IC04Ljc1ICIvPgo8L3N5bWJvbD4KPHN5bWJvbCBvdmVyZmxvdz0idmlzaWJsZSIgaWQ9ImdseXBoMC0zIj4KPHBhdGggc3R5bGU9InN0cm9rZTpub25lOyIgZD0iTSAyLjM1OTM3NSAtNC4xNzE4NzUgTCAyLjM1OTM3NSAtMC45Njg3NSBMIDQuMjY1NjI1IC0wLjk2ODc1IEMgNC44OTg0MzggLTAuOTY4NzUgNS4zNjcxODggLTEuMDk3NjU2IDUuNjcxODc1IC0xLjM1OTM3NSBDIDUuOTg0Mzc1IC0xLjYyODkwNiA2LjE0MDYyNSAtMi4wMzUxNTYgNi4xNDA2MjUgLTIuNTc4MTI1IEMgNi4xNDA2MjUgLTMuMTI4OTA2IDUuOTg0Mzc1IC0zLjUzMTI1IDUuNjcxODc1IC0zLjc4MTI1IEMgNS4zNjcxODggLTQuMDM5MDYyIDQuODk4NDM4IC00LjE3MTg3NSA0LjI2NTYyNSAtNC4xNzE4NzUgWiBNIDIuMzU5Mzc1IC03Ljc4MTI1IEwgMi4zNTkzNzUgLTUuMTQwNjI1IEwgNC4xMDkzNzUgLTUuMTQwNjI1IEMgNC42OTE0MDYgLTUuMTQwNjI1IDUuMTI1IC01LjI1IDUuNDA2MjUgLTUuNDY4NzUgQyA1LjY4NzUgLTUuNjg3NSA1LjgyODEyNSAtNi4wMTU2MjUgNS44MjgxMjUgLTYuNDUzMTI1IEMgNS44MjgxMjUgLTYuODk4NDM4IDUuNjg3NSAtNy4yMzQzNzUgNS40MDYyNSAtNy40NTMxMjUgQyA1LjEyNSAtNy42NzE4NzUgNC42OTE0MDYgLTcuNzgxMjUgNC4xMDkzNzUgLTcuNzgxMjUgWiBNIDEuMTcxODc1IC04Ljc1IEwgNC4yMDMxMjUgLTguNzUgQyA1LjEwOTM3NSAtOC43NSA1LjgwMDc4MSAtOC41NjI1IDYuMjgxMjUgLTguMTg3NSBDIDYuNzY5NTMxIC03LjgxMjUgNy4wMTU2MjUgLTcuMjgxMjUgNy4wMTU2MjUgLTYuNTkzNzUgQyA3LjAxNTYyNSAtNi4wNTA3ODEgNi44OTA2MjUgLTUuNjE3MTg4IDYuNjQwNjI1IC01LjI5Njg3NSBDIDYuMzkwNjI1IC00Ljk4NDM3NSA2LjAyMzQzOCAtNC43ODkwNjIgNS41NDY4NzUgLTQuNzE4NzUgQyA2LjEyODkwNiAtNC41OTM3NSA2LjU4MjAzMSAtNC4zMzIwMzEgNi45MDYyNSAtMy45Mzc1IEMgNy4yMjY1NjIgLTMuNTM5MDYyIDcuMzkwNjI1IC0zLjA0Njg3NSA3LjM5MDYyNSAtMi40NTMxMjUgQyA3LjM5MDYyNSAtMS42NzE4NzUgNy4xMjUgLTEuMDY2NDA2IDYuNTkzNzUgLTAuNjQwNjI1IEMgNi4wNjI1IC0wLjIxMDkzOCA1LjMwMDc4MSAwIDQuMzEyNSAwIEwgMS4xNzE4NzUgMCBaIE0gMS4xNzE4NzUgLTguNzUgIi8+Cjwvc3ltYm9sPgo8c3ltYm9sIG92ZXJmbG93PSJ2aXNpYmxlIiBpZD0iZ2x5cGgwLTQiPgo8cGF0aCBzdHlsZT0ic3Ryb2tlOm5vbmU7IiBkPSJNIDQuOTM3NSAtNS41NjI1IEMgNC44MTI1IC01LjYyNSA0LjY3NTc4MSAtNS42NzE4NzUgNC41MzEyNSAtNS43MDMxMjUgQyA0LjM5NDUzMSAtNS43NDIxODggNC4yMzgyODEgLTUuNzY1NjI1IDQuMDYyNSAtNS43NjU2MjUgQyAzLjQ1NzAzMSAtNS43NjU2MjUgMi45ODgyODEgLTUuNTY2NDA2IDIuNjU2MjUgLTUuMTcxODc1IEMgMi4zMzIwMzEgLTQuNzczNDM4IDIuMTcxODc1IC00LjIwMzEyNSAyLjE3MTg3NSAtMy40NTMxMjUgTCAyLjE3MTg3NSAwIEwgMS4wOTM3NSAwIEwgMS4wOTM3NSAtNi41NjI1IEwgMi4xNzE4NzUgLTYuNTYyNSBMIDIuMTcxODc1IC01LjU0Njg3NSBDIDIuMzk4NDM4IC01Ljk0MTQwNiAyLjY5NTMxMiAtNi4yMzQzNzUgMy4wNjI1IC02LjQyMTg3NSBDIDMuNDI1NzgxIC02LjYxNzE4OCAzLjg2NzE4OCAtNi43MTg3NSA0LjM5MDYyNSAtNi43MTg3NSBDIDQuNDYwOTM4IC02LjcxODc1IDQuNTM5MDYyIC02LjcxMDkzOCA0LjYyNSAtNi43MDMxMjUgQyA0LjcxODc1IC02LjY5MTQwNiA0LjgxNjQwNiAtNi42NzU3ODEgNC45MjE4NzUgLTYuNjU2MjUgWiBNIDQuOTM3NSAtNS41NjI1ICIvPgo8L3N5bWJvbD4KPHN5bWJvbCBvdmVyZmxvdz0idmlzaWJsZSIgaWQ9ImdseXBoMS0wIj4KPHBhdGggc3R5bGU9InN0cm9rZTpub25lOyIgZD0iTSAwLjUgMS43NjU2MjUgTCAwLjUgLTcuMDQ2ODc1IEwgNS41IC03LjA0Njg3NSBMIDUuNSAxLjc2NTYyNSBaIE0gMS4wNjI1IDEuMjE4NzUgTCA0LjkzNzUgMS4yMTg3NSBMIDQuOTM3NSAtNi40ODQzNzUgTCAxLjA2MjUgLTYuNDg0Mzc1IFogTSAxLjA2MjUgMS4yMTg3NSAiLz4KPC9zeW1ib2w+CjxzeW1ib2wgb3ZlcmZsb3c9InZpc2libGUiIGlkPSJnbHlwaDEtMSI+CjxwYXRoIHN0eWxlPSJzdHJva2U6bm9uZTsiIGQ9Ik0gNC4wNjI1IC0zLjkzNzUgQyA0LjUzMTI1IC0zLjgzMjAzMSA0Ljg5NDUzMSAtMy42MTcxODggNS4xNTYyNSAtMy4yOTY4NzUgQyA1LjQyNTc4MSAtMi45ODQzNzUgNS41NjI1IC0yLjU5Mzc1IDUuNTYyNSAtMi4xMjUgQyA1LjU2MjUgLTEuNDA2MjUgNS4zMTI1IC0wLjg0NzY1NiA0LjgxMjUgLTAuNDUzMTI1IEMgNC4zMjAzMTIgLTAuMDU0Njg3NSAzLjYxNzE4OCAwLjE0MDYyNSAyLjcwMzEyNSAwLjE0MDYyNSBDIDIuMzk4NDM4IDAuMTQwNjI1IDIuMDg1OTM4IDAuMTA5Mzc1IDEuNzY1NjI1IDAuMDQ2ODc1IEMgMS40NDE0MDYgLTAuMDE1NjI1IDEuMTA5Mzc1IC0wLjEwMTU2MiAwLjc2NTYyNSAtMC4yMTg3NSBMIDAuNzY1NjI1IC0xLjE3MTg3NSBDIDEuMDM1MTU2IC0xLjAxNTYyNSAxLjMzMjAzMSAtMC44OTQ1MzEgMS42NTYyNSAtMC44MTI1IEMgMS45ODgyODEgLTAuNzI2NTYyIDIuMzMyMDMxIC0wLjY4NzUgMi42ODc1IC0wLjY4NzUgQyAzLjMwMDc4MSAtMC42ODc1IDMuNzY5NTMxIC0wLjgwNDY4OCA0LjA5Mzc1IC0xLjA0Njg3NSBDIDQuNDE0MDYyIC0xLjI5Njg3NSA0LjU3ODEyNSAtMS42NTYyNSA0LjU3ODEyNSAtMi4xMjUgQyA0LjU3ODEyNSAtMi41NTA3ODEgNC40MjU3ODEgLTIuODgyODEyIDQuMTI1IC0zLjEyNSBDIDMuODIwMzEyIC0zLjM2MzI4MSAzLjQwNjI1IC0zLjQ4NDM3NSAyLjg3NSAtMy40ODQzNzUgTCAyLjAxNTYyNSAtMy40ODQzNzUgTCAyLjAxNTYyNSAtNC4yOTY4NzUgTCAyLjkwNjI1IC00LjI5Njg3NSBDIDMuMzk0NTMxIC00LjI5Njg3NSAzLjc2NTYyNSAtNC4zOTQ1MzEgNC4wMTU2MjUgLTQuNTkzNzUgQyA0LjI3MzQzOCAtNC43ODkwNjIgNC40MDYyNSAtNS4wNzAzMTIgNC40MDYyNSAtNS40Mzc1IEMgNC40MDYyNSAtNS44MDA3ODEgNC4yNjk1MzEgLTYuMDgyMDMxIDQgLTYuMjgxMjUgQyAzLjczODI4MSAtNi40ODgyODEgMy4zNjMyODEgLTYuNTkzNzUgMi44NzUgLTYuNTkzNzUgQyAyLjYwMTU2MiAtNi41OTM3NSAyLjMxMjUgLTYuNTYyNSAyIC02LjUgQyAxLjY4NzUgLTYuNDQ1MzEyIDEuMzQ3NjU2IC02LjM1OTM3NSAwLjk4NDM3NSAtNi4yMzQzNzUgTCAwLjk4NDM3NSAtNy4xMDkzNzUgQyAxLjM1OTM3NSAtNy4yMTA5MzggMS43MDcwMzEgLTcuMjg5MDYyIDIuMDMxMjUgLTcuMzQzNzUgQyAyLjM2MzI4MSAtNy4zOTQ1MzEgMi42NzE4NzUgLTcuNDIxODc1IDIuOTUzMTI1IC03LjQyMTg3NSBDIDMuNzAzMTI1IC03LjQyMTg3NSA0LjI5Njg3NSAtNy4yNSA0LjczNDM3NSAtNi45MDYyNSBDIDUuMTcxODc1IC02LjU3MDMxMiA1LjM5MDYyNSAtNi4xMTMyODEgNS4zOTA2MjUgLTUuNTMxMjUgQyA1LjM5MDYyNSAtNS4xMjUgNS4yNzM0MzggLTQuNzgxMjUgNS4wNDY4NzUgLTQuNSBDIDQuODE2NDA2IC00LjIyNjU2MiA0LjQ4ODI4MSAtNC4wMzkwNjIgNC4wNjI1IC0zLjkzNzUgWiBNIDQuMDYyNSAtMy45Mzc1ICIvPgo8L3N5bWJvbD4KPC9nPgo8L2RlZnM+CjxnIGlkPSJzdXJmYWNlNDYiPgo8cmVjdCB4PSIwIiB5PSIwIiB3aWR0aD0iMzAwIiBoZWlnaHQ9IjMwMCIgc3R5bGU9ImZpbGw6cmdiKDEwMCUsMTAwJSwxMDAlKTtmaWxsLW9wYWNpdHk6MTtzdHJva2U6bm9uZTsiLz4KPGcgc3R5bGU9ImZpbGw6cmdiKDAlLDAlLDEwMCUpO2ZpbGwtb3BhY2l0eToxOyI+CiAgPHVzZSB4bGluazpocmVmPSIjZ2x5cGgwLTEiIHg9IjExMC4wNDI5NjkiIHk9IjE1NC4xMzg2NzIiLz4KPC9nPgo8ZyBzdHlsZT0iZmlsbDpyZ2IoMCUsMCUsMTAwJSk7ZmlsbC1vcGFjaXR5OjE7Ij4KICA8dXNlIHhsaW5rOmhyZWY9IiNnbHlwaDEtMSIgeD0iMTE5LjA2NjQwNiIgeT0iMTU5LjAyMTQ4NCIvPgo8L2c+CjxnIHN0eWxlPSJmaWxsOnJnYigwJSwwJSwxMDAlKTtmaWxsLW9wYWNpdHk6MTsiPgogIDx1c2UgeGxpbms6aHJlZj0iI2dseXBoMC0yIiB4PSIxMjUuNDI4NzExIiB5PSIxNTQuMTM4NjcyIi8+CjwvZz4KPGcgc3R5bGU9ImZpbGw6cmdiKDUwJSwzMCUsMTAlKTtmaWxsLW9wYWNpdHk6MTsiPgogIDx1c2UgeGxpbms6aHJlZj0iI2dseXBoMC0zIiB4PSIxNjEuNDU3MDMxIiB5PSIxNTQuMTM4NjcyIi8+CiAgPHVzZSB4bGluazpocmVmPSIjZ2x5cGgwLTQiIHg9IjE2OS42ODk0NTMiIHk9IjE1NC4xMzg2NzIiLz4KICA8dXNlIHhsaW5rOmhyZWY9IiNnbHlwaDAtMSIgeD0iMTc0LjYyMzA0NyIgeT0iMTU0LjEzODY3MiIvPgo8L2c+CjxwYXRoIHN0eWxlPSJmaWxsOm5vbmU7c3Ryb2tlLXdpZHRoOjEuMjtzdHJva2UtbGluZWNhcDpidXR0O3N0cm9rZS1saW5lam9pbjptaXRlcjtzdHJva2U6cmdiKDAlLDAlLDEwMCUpO3N0cm9rZS1vcGFjaXR5OjE7c3Ryb2tlLW1pdGVybGltaXQ6MTA7IiBkPSJNIDEzNi40NDE0MDYgMTUwIEwgMTQ4LjI1IDE1MCAiLz4KPHBhdGggc3R5bGU9ImZpbGw6bm9uZTtzdHJva2Utd2lkdGg6MS4yO3N0cm9rZS1saW5lY2FwOmJ1dHQ7c3Ryb2tlLWxpbmVqb2luOm1pdGVyO3N0cm9rZTpyZ2IoNTAlLDMwJSwxMCUpO3N0cm9rZS1vcGFjaXR5OjE7c3Ryb2tlLW1pdGVybGltaXQ6MTA7IiBkPSJNIDE0OC4yNSAxNTAgTCAxNjAuMDU4NTk0IDE1MCAiLz4KPC9nPgo8L3N2Zz4K'
p120
sa(dp121
g2
(dp122
g4
(lp123
(dp124
g7
g8
sg9
g13
sg10
g11
sa(dp125
g7
g13
sg9
g20
sg10
g11
sa(dp126
g7
g32
sg9
g43
sg10
g11
sasg14
(lp127
(dp128
g17
g8
sg18
g13
sa(dp129
g17
g13
sg18
g32
sassg19
g20
sg21
S'11'
p130
sg22
S'F.NBr'
p131
sg24
S'PD94bWwgdmVyc2lvbj0iMS4wIiBlbmNvZGluZz0iVVRGLTgiPz4KPHN2ZyB4bWxucz0iaHR0cDovL3d3dy53My5vcmcvMjAwMC9zdmciIHhtbG5zOnhsaW5rPSJodHRwOi8vd3d3LnczLm9yZy8xOTk5L3hsaW5rIiB3aWR0aD0iMzAwcHQiIGhlaWdodD0iMzAwcHQiIHZpZXdCb3g9IjAgMCAzMDAgMzAwIiB2ZXJzaW9uPSIxLjEiPgo8ZGVmcz4KPGc+CjxzeW1ib2wgb3ZlcmZsb3c9InZpc2libGUiIGlkPSJnbHlwaDAtMCI+CjxwYXRoIHN0eWxlPSJzdHJva2U6bm9uZTsiIGQ9Ik0gMC41OTM3NSAyLjEyNSBMIDAuNTkzNzUgLTguNDY4NzUgTCA2LjU5Mzc1IC04LjQ2ODc1IEwgNi41OTM3NSAyLjEyNSBaIE0gMS4yNjU2MjUgMS40NTMxMjUgTCA1LjkzNzUgMS40NTMxMjUgTCA1LjkzNzUgLTcuNzgxMjUgTCAxLjI2NTYyNSAtNy43ODEyNSBaIE0gMS4yNjU2MjUgMS40NTMxMjUgIi8+Cjwvc3ltYm9sPgo8c3ltYm9sIG92ZXJmbG93PSJ2aXNpYmxlIiBpZD0iZ2x5cGgwLTEiPgo8cGF0aCBzdHlsZT0ic3Ryb2tlOm5vbmU7IiBkPSJNIDEuMTcxODc1IC04Ljc1IEwgMi4zNTkzNzUgLTguNzUgTCAyLjM1OTM3NSAtNS4xNTYyNSBMIDYuNjU2MjUgLTUuMTU2MjUgTCA2LjY1NjI1IC04Ljc1IEwgNy44NDM3NSAtOC43NSBMIDcuODQzNzUgMCBMIDYuNjU2MjUgMCBMIDYuNjU2MjUgLTQuMTcxODc1IEwgMi4zNTkzNzUgLTQuMTcxODc1IEwgMi4zNTkzNzUgMCBMIDEuMTcxODc1IDAgWiBNIDEuMTcxODc1IC04Ljc1ICIvPgo8L3N5bWJvbD4KPHN5bWJvbCBvdmVyZmxvdz0idmlzaWJsZSIgaWQ9ImdseXBoMC0yIj4KPHBhdGggc3R5bGU9InN0cm9rZTpub25lOyIgZD0iTSAxLjE3MTg3NSAtOC43NSBMIDIuNzY1NjI1IC04Ljc1IEwgNi42NTYyNSAtMS40Mzc1IEwgNi42NTYyNSAtOC43NSBMIDcuNzk2ODc1IC04Ljc1IEwgNy43OTY4NzUgMCBMIDYuMjAzMTI1IDAgTCAyLjMyODEyNSAtNy4zMTI1IEwgMi4zMjgxMjUgMCBMIDEuMTcxODc1IDAgWiBNIDEuMTcxODc1IC04Ljc1ICIvPgo8L3N5bWJvbD4KPHN5bWJvbCBvdmVyZmxvdz0idmlzaWJsZSIgaWQ9ImdseXBoMC0zIj4KPHBhdGggc3R5bGU9InN0cm9rZTpub25lOyIgZD0iTSAyLjM1OTM3NSAtNC4xNzE4NzUgTCAyLjM1OTM3NSAtMC45Njg3NSBMIDQuMjY1NjI1IC0wLjk2ODc1IEMgNC44OTg0MzggLTAuOTY4NzUgNS4zNjcxODggLTEuMDk3NjU2IDUuNjcxODc1IC0xLjM1OTM3NSBDIDUuOTg0Mzc1IC0xLjYyODkwNiA2LjE0MDYyNSAtMi4wMzUxNTYgNi4xNDA2MjUgLTIuNTc4MTI1IEMgNi4xNDA2MjUgLTMuMTI4OTA2IDUuOTg0Mzc1IC0zLjUzMTI1IDUuNjcxODc1IC0zLjc4MTI1IEMgNS4zNjcxODggLTQuMDM5MDYyIDQuODk4NDM4IC00LjE3MTg3NSA0LjI2NTYyNSAtNC4xNzE4NzUgWiBNIDIuMzU5Mzc1IC03Ljc4MTI1IEwgMi4zNTkzNzUgLTUuMTQwNjI1IEwgNC4xMDkzNzUgLTUuMTQwNjI1IEMgNC42OTE0MDYgLTUuMTQwNjI1IDUuMTI1IC01LjI1IDUuNDA2MjUgLTUuNDY4NzUgQyA1LjY4NzUgLTUuNjg3NSA1LjgyODEyNSAtNi4wMTU2MjUgNS44MjgxMjUgLTYuNDUzMTI1IEMgNS44MjgxMjUgLTYuODk4NDM4IDUuNjg3NSAtNy4yMzQzNzUgNS40MDYyNSAtNy40NTMxMjUgQyA1LjEyNSAtNy42NzE4NzUgNC42OTE0MDYgLTcuNzgxMjUgNC4xMDkzNzUgLTcuNzgxMjUgWiBNIDEuMTcxODc1IC04Ljc1IEwgNC4yMDMxMjUgLTguNzUgQyA1LjEwOTM3NSAtOC43NSA1LjgwMDc4MSAtOC41NjI1IDYuMjgxMjUgLTguMTg3NSBDIDYuNzY5NTMxIC03LjgxMjUgNy4wMTU2MjUgLTcuMjgxMjUgNy4wMTU2MjUgLTYuNTkzNzUgQyA3LjAxNTYyNSAtNi4wNTA3ODEgNi44OTA2MjUgLTUuNjE3MTg4IDYuNjQwNjI1IC01LjI5Njg3NSBDIDYuMzkwNjI1IC00Ljk4NDM3NSA2LjAyMzQzOCAtNC43ODkwNjIgNS41NDY4NzUgLTQuNzE4NzUgQyA2LjEyODkwNiAtNC41OTM3NSA2LjU4MjAzMSAtNC4zMzIwMzEgNi45MDYyNSAtMy45Mzc1IEMgNy4yMjY1NjIgLTMuNTM5MDYyIDcuMzkwNjI1IC0zLjA0Njg3NSA3LjM5MDYyNSAtMi40NTMxMjUgQyA3LjM5MDYyNSAtMS42NzE4NzUgNy4xMjUgLTEuMDY2NDA2IDYuNTkzNzUgLTAuNjQwNjI1IEMgNi4wNjI1IC0wLjIxMDkzOCA1LjMwMDc4MSAwIDQuMzEyNSAwIEwgMS4xNzE4NzUgMCBaIE0gMS4xNzE4NzUgLTguNzUgIi8+Cjwvc3ltYm9sPgo8c3ltYm9sIG92ZXJmbG93PSJ2aXNpYmxlIiBpZD0iZ2x5cGgwLTQiPgo8cGF0aCBzdHlsZT0ic3Ryb2tlOm5vbmU7IiBkPSJNIDQuOTM3NSAtNS41NjI1IEMgNC44MTI1IC01LjYyNSA0LjY3NTc4MSAtNS42NzE4NzUgNC41MzEyNSAtNS43MDMxMjUgQyA0LjM5NDUzMSAtNS43NDIxODggNC4yMzgyODEgLTUuNzY1NjI1IDQuMDYyNSAtNS43NjU2MjUgQyAzLjQ1NzAzMSAtNS43NjU2MjUgMi45ODgyODEgLTUuNTY2NDA2IDIuNjU2MjUgLTUuMTcxODc1IEMgMi4zMzIwMzEgLTQuNzczNDM4IDIuMTcxODc1IC00LjIwMzEyNSAyLjE3MTg3NSAtMy40NTMxMjUgTCAyLjE3MTg3NSAwIEwgMS4wOTM3NSAwIEwgMS4wOTM3NSAtNi41NjI1IEwgMi4xNzE4NzUgLTYuNTYyNSBMIDIuMTcxODc1IC01LjU0Njg3NSBDIDIuMzk4NDM4IC01Ljk0MTQwNiAyLjY5NTMxMiAtNi4yMzQzNzUgMy4wNjI1IC02LjQyMTg3NSBDIDMuNDI1NzgxIC02LjYxNzE4OCAzLjg2NzE4OCAtNi43MTg3NSA0LjM5MDYyNSAtNi43MTg3NSBDIDQuNDYwOTM4IC02LjcxODc1IDQuNTM5MDYyIC02LjcxMDkzOCA0LjYyNSAtNi43MDMxMjUgQyA0LjcxODc1IC02LjY5MTQwNiA0LjgxNjQwNiAtNi42NzU3ODEgNC45MjE4NzUgLTYuNjU2MjUgWiBNIDQuOTM3NSAtNS41NjI1ICIvPgo8L3N5bWJvbD4KPHN5bWJvbCBvdmVyZmxvdz0idmlzaWJsZSIgaWQ9ImdseXBoMC01Ij4KPHBhdGggc3R5bGU9InN0cm9rZTpub25lOyIgZD0iTSAxLjE3MTg3NSAtOC43NSBMIDYuMjAzMTI1IC04Ljc1IEwgNi4yMDMxMjUgLTcuNzUgTCAyLjM1OTM3NSAtNy43NSBMIDIuMzU5Mzc1IC01LjE3MTg3NSBMIDUuODI4MTI1IC01LjE3MTg3NSBMIDUuODI4MTI1IC00LjE3MTg3NSBMIDIuMzU5Mzc1IC00LjE3MTg3NSBMIDIuMzU5Mzc1IDAgTCAxLjE3MTg3NSAwIFogTSAxLjE3MTg3NSAtOC43NSAiLz4KPC9zeW1ib2w+CjxzeW1ib2wgb3ZlcmZsb3c9InZpc2libGUiIGlkPSJnbHlwaDEtMCI+CjxwYXRoIHN0eWxlPSJzdHJva2U6bm9uZTsiIGQ9Ik0gMC41IDEuNzY1NjI1IEwgMC41IC03LjA0Njg3NSBMIDUuNSAtNy4wNDY4NzUgTCA1LjUgMS43NjU2MjUgWiBNIDEuMDYyNSAxLjIxODc1IEwgNC45Mzc1IDEuMjE4NzUgTCA0LjkzNzUgLTYuNDg0Mzc1IEwgMS4wNjI1IC02LjQ4NDM3NSBaIE0gMS4wNjI1IDEuMjE4NzUgIi8+Cjwvc3ltYm9sPgo8c3ltYm9sIG92ZXJmbG93PSJ2aXNpYmxlIiBpZD0iZ2x5cGgxLTEiPgo8cGF0aCBzdHlsZT0ic3Ryb2tlOm5vbmU7IiBkPSJNIDQuMDYyNSAtMy45Mzc1IEMgNC41MzEyNSAtMy44MzIwMzEgNC44OTQ1MzEgLTMuNjE3MTg4IDUuMTU2MjUgLTMuMjk2ODc1IEMgNS40MjU3ODEgLTIuOTg0Mzc1IDUuNTYyNSAtMi41OTM3NSA1LjU2MjUgLTIuMTI1IEMgNS41NjI1IC0xLjQwNjI1IDUuMzEyNSAtMC44NDc2NTYgNC44MTI1IC0wLjQ1MzEyNSBDIDQuMzIwMzEyIC0wLjA1NDY4NzUgMy42MTcxODggMC4xNDA2MjUgMi43MDMxMjUgMC4xNDA2MjUgQyAyLjM5ODQzOCAwLjE0MDYyNSAyLjA4NTkzOCAwLjEwOTM3NSAxLjc2NTYyNSAwLjA0Njg3NSBDIDEuNDQxNDA2IC0wLjAxNTYyNSAxLjEwOTM3NSAtMC4xMDE1NjIgMC43NjU2MjUgLTAuMjE4NzUgTCAwLjc2NTYyNSAtMS4xNzE4NzUgQyAxLjAzNTE1NiAtMS4wMTU2MjUgMS4zMzIwMzEgLTAuODk0NTMxIDEuNjU2MjUgLTAuODEyNSBDIDEuOTg4MjgxIC0wLjcyNjU2MiAyLjMzMjAzMSAtMC42ODc1IDIuNjg3NSAtMC42ODc1IEMgMy4zMDA3ODEgLTAuNjg3NSAzLjc2OTUzMSAtMC44MDQ2ODggNC4wOTM3NSAtMS4wNDY4NzUgQyA0LjQxNDA2MiAtMS4yOTY4NzUgNC41NzgxMjUgLTEuNjU2MjUgNC41NzgxMjUgLTIuMTI1IEMgNC41NzgxMjUgLTIuNTUwNzgxIDQuNDI1NzgxIC0yLjg4MjgxMiA0LjEyNSAtMy4xMjUgQyAzLjgyMDMxMiAtMy4zNjMyODEgMy40MDYyNSAtMy40ODQzNzUgMi44NzUgLTMuNDg0Mzc1IEwgMi4wMTU2MjUgLTMuNDg0Mzc1IEwgMi4wMTU2MjUgLTQuMjk2ODc1IEwgMi45MDYyNSAtNC4yOTY4NzUgQyAzLjM5NDUzMSAtNC4yOTY4NzUgMy43NjU2MjUgLTQuMzk0NTMxIDQuMDE1NjI1IC00LjU5Mzc1IEMgNC4yNzM0MzggLTQuNzg5MDYyIDQuNDA2MjUgLTUuMDcwMzEyIDQuNDA2MjUgLTUuNDM3NSBDIDQuNDA2MjUgLTUuODAwNzgxIDQuMjY5NTMxIC02LjA4MjAzMSA0IC02LjI4MTI1IEMgMy43MzgyODEgLTYuNDg4MjgxIDMuMzYzMjgxIC02LjU5Mzc1IDIuODc1IC02LjU5Mzc1IEMgMi42MDE1NjIgLTYuNTkzNzUgMi4zMTI1IC02LjU2MjUgMiAtNi41IEMgMS42ODc1IC02LjQ0NTMxMiAxLjM0NzY1NiAtNi4zNTkzNzUgMC45ODQzNzUgLTYuMjM0Mzc1IEwgMC45ODQzNzUgLTcuMTA5Mzc1IEMgMS4zNTkzNzUgLTcuMjEwOTM4IDEuNzA3MDMxIC03LjI4OTA2MiAyLjAzMTI1IC03LjM0Mzc1IEMgMi4zNjMyODEgLTcuMzk0NTMxIDIuNjcxODc1IC03LjQyMTg3NSAyLjk1MzEyNSAtNy40MjE4NzUgQyAzLjcwMzEyNSAtNy40MjE4NzUgNC4yOTY4NzUgLTcuMjUgNC43MzQzNzUgLTYuOTA2MjUgQyA1LjE3MTg3NSAtNi41NzAzMTIgNS4zOTA2MjUgLTYuMTEzMjgxIDUuMzkwNjI1IC01LjUzMTI1IEMgNS4zOTA2MjUgLTUuMTI1IDUuMjczNDM4IC00Ljc4MTI1IDUuMDQ2ODc1IC00LjUgQyA0LjgxNjQwNiAtNC4yMjY1NjIgNC40ODgyODEgLTQuMDM5MDYyIDQuMDYyNSAtMy45Mzc1IFogTSA0LjA2MjUgLTMuOTM3NSAiLz4KPC9zeW1ib2w+CjwvZz4KPC9kZWZzPgo8ZyBpZD0ic3VyZmFjZTUwIj4KPHJlY3QgeD0iMCIgeT0iMCIgd2lkdGg9IjMwMCIgaGVpZ2h0PSIzMDAiIHN0eWxlPSJmaWxsOnJnYigxMDAlLDEwMCUsMTAwJSk7ZmlsbC1vcGFjaXR5OjE7c3Ryb2tlOm5vbmU7Ii8+CjxnIHN0eWxlPSJmaWxsOnJnYigwJSwwJSwxMDAlKTtmaWxsLW9wYWNpdHk6MTsiPgogIDx1c2UgeGxpbms6aHJlZj0iI2dseXBoMC0xIiB4PSIxMTAuMDQyOTY5IiB5PSIxNjYuODg4NjcyIi8+CjwvZz4KPGcgc3R5bGU9ImZpbGw6cmdiKDAlLDAlLDEwMCUpO2ZpbGwtb3BhY2l0eToxOyI+CiAgPHVzZSB4bGluazpocmVmPSIjZ2x5cGgxLTEiIHg9IjExOS4wNjY0MDYiIHk9IjE3MS43NzE0ODQiLz4KPC9nPgo8ZyBzdHlsZT0iZmlsbDpyZ2IoMCUsMCUsMTAwJSk7ZmlsbC1vcGFjaXR5OjE7Ij4KICA8dXNlIHhsaW5rOmhyZWY9IiNnbHlwaDAtMiIgeD0iMTI1LjQyODcxMSIgeT0iMTY2Ljg4ODY3MiIvPgo8L2c+CjxnIHN0eWxlPSJmaWxsOnJnYig1MCUsMzAlLDEwJSk7ZmlsbC1vcGFjaXR5OjE7Ij4KICA8dXNlIHhsaW5rOmhyZWY9IiNnbHlwaDAtMyIgeD0iMTYxLjQ1NzAzMSIgeT0iMTY2Ljg4ODY3MiIvPgogIDx1c2UgeGxpbms6aHJlZj0iI2dseXBoMC00IiB4PSIxNjkuNjg5NDUzIiB5PSIxNjYuODg4NjcyIi8+CiAgPHVzZSB4bGluazpocmVmPSIjZ2x5cGgwLTEiIHg9IjE3NC42MjMwNDciIHk9IjE2Ni44ODg2NzIiLz4KPC9nPgo8ZyBzdHlsZT0iZmlsbDpyZ2IoMjAlLDgwJSw4MCUpO2ZpbGwtb3BhY2l0eToxOyI+CiAgPHVzZSB4bGluazpocmVmPSIjZ2x5cGgwLTEiIHg9IjE0MiIgeT0iMTQxLjM4ODY3MiIvPgogIDx1c2UgeGxpbms6aHJlZj0iI2dseXBoMC01IiB4PSIxNTEuMDIzNDM4IiB5PSIxNDEuMzg4NjcyIi8+CjwvZz4KPHBhdGggc3R5bGU9ImZpbGw6bm9uZTtzdHJva2Utd2lkdGg6MS4yO3N0cm9rZS1saW5lY2FwOmJ1dHQ7c3Ryb2tlLWxpbmVqb2luOm1pdGVyO3N0cm9rZTpyZ2IoMCUsMCUsMTAwJSk7c3Ryb2tlLW9wYWNpdHk6MTtzdHJva2UtbWl0ZXJsaW1pdDoxMDsiIGQ9Ik0gMTM2LjQ0MTQwNiAxNjIuNzUgTCAxNDguMjUgMTYyLjc1ICIvPgo8cGF0aCBzdHlsZT0iZmlsbDpub25lO3N0cm9rZS13aWR0aDoxLjI7c3Ryb2tlLWxpbmVjYXA6YnV0dDtzdHJva2UtbGluZWpvaW46bWl0ZXI7c3Ryb2tlOnJnYig1MCUsMzAlLDEwJSk7c3Ryb2tlLW9wYWNpdHk6MTtzdHJva2UtbWl0ZXJsaW1pdDoxMDsiIGQ9Ik0gMTQ4LjI1IDE2Mi43NSBMIDE2MC4wNTg1OTQgMTYyLjc1ICIvPgo8L2c+Cjwvc3ZnPgo='
p132
sa(dp133
g2
(dp134
g4
(lp135
(dp136
g7
g8
sg9
g13
sg10
g11
sa(dp137
g7
g13
sg9
g20
sg10
g11
sa(dp138
g7
g32
sg9
g32
sg10
g11
sasg14
(lp139
(dp140
g17
g8
sg18
g13
sa(dp141
g17
g13
sg18
g32
sassg19
g20
sg21
S'12'
p142
sg22
S'C=BrN'
p143
sg24
S'PD94bWwgdmVyc2lvbj0iMS4wIiBlbmNvZGluZz0iVVRGLTgiPz4KPHN2ZyB4bWxucz0iaHR0cDovL3d3dy53My5vcmcvMjAwMC9zdmciIHhtbG5zOnhsaW5rPSJodHRwOi8vd3d3LnczLm9yZy8xOTk5L3hsaW5rIiB3aWR0aD0iMzAwcHQiIGhlaWdodD0iMzAwcHQiIHZpZXdCb3g9IjAgMCAzMDAgMzAwIiB2ZXJzaW9uPSIxLjEiPgo8ZGVmcz4KPGc+CjxzeW1ib2wgb3ZlcmZsb3c9InZpc2libGUiIGlkPSJnbHlwaDAtMCI+CjxwYXRoIHN0eWxlPSJzdHJva2U6bm9uZTsiIGQ9Ik0gMC41OTM3NSAyLjEyNSBMIDAuNTkzNzUgLTguNDY4NzUgTCA2LjU5Mzc1IC04LjQ2ODc1IEwgNi41OTM3NSAyLjEyNSBaIE0gMS4yNjU2MjUgMS40NTMxMjUgTCA1LjkzNzUgMS40NTMxMjUgTCA1LjkzNzUgLTcuNzgxMjUgTCAxLjI2NTYyNSAtNy43ODEyNSBaIE0gMS4yNjU2MjUgMS40NTMxMjUgIi8+Cjwvc3ltYm9sPgo8c3ltYm9sIG92ZXJmbG93PSJ2aXNpYmxlIiBpZD0iZ2x5cGgwLTEiPgo8cGF0aCBzdHlsZT0ic3Ryb2tlOm5vbmU7IiBkPSJNIDEuMTcxODc1IC04Ljc1IEwgMi4zNTkzNzUgLTguNzUgTCAyLjM1OTM3NSAtNS4xNTYyNSBMIDYuNjU2MjUgLTUuMTU2MjUgTCA2LjY1NjI1IC04Ljc1IEwgNy44NDM3NSAtOC43NSBMIDcuODQzNzUgMCBMIDYuNjU2MjUgMCBMIDYuNjU2MjUgLTQuMTcxODc1IEwgMi4zNTkzNzUgLTQuMTcxODc1IEwgMi4zNTkzNzUgMCBMIDEuMTcxODc1IDAgWiBNIDEuMTcxODc1IC04Ljc1ICIvPgo8L3N5bWJvbD4KPHN5bWJvbCBvdmVyZmxvdz0idmlzaWJsZSIgaWQ9ImdseXBoMC0yIj4KPHBhdGggc3R5bGU9InN0cm9rZTpub25lOyIgZD0iTSAxLjE3MTg3NSAtOC43NSBMIDIuNzY1NjI1IC04Ljc1IEwgNi42NTYyNSAtMS40Mzc1IEwgNi42NTYyNSAtOC43NSBMIDcuNzk2ODc1IC04Ljc1IEwgNy43OTY4NzUgMCBMIDYuMjAzMTI1IDAgTCAyLjMyODEyNSAtNy4zMTI1IEwgMi4zMjgxMjUgMCBMIDEuMTcxODc1IDAgWiBNIDEuMTcxODc1IC04Ljc1ICIvPgo8L3N5bWJvbD4KPHN5bWJvbCBvdmVyZmxvdz0idmlzaWJsZSIgaWQ9ImdseXBoMC0zIj4KPHBhdGggc3R5bGU9InN0cm9rZTpub25lOyIgZD0iTSAyLjM1OTM3NSAtNC4xNzE4NzUgTCAyLjM1OTM3NSAtMC45Njg3NSBMIDQuMjY1NjI1IC0wLjk2ODc1IEMgNC44OTg0MzggLTAuOTY4NzUgNS4zNjcxODggLTEuMDk3NjU2IDUuNjcxODc1IC0xLjM1OTM3NSBDIDUuOTg0Mzc1IC0xLjYyODkwNiA2LjE0MDYyNSAtMi4wMzUxNTYgNi4xNDA2MjUgLTIuNTc4MTI1IEMgNi4xNDA2MjUgLTMuMTI4OTA2IDUuOTg0Mzc1IC0zLjUzMTI1IDUuNjcxODc1IC0zLjc4MTI1IEMgNS4zNjcxODggLTQuMDM5MDYyIDQuODk4NDM4IC00LjE3MTg3NSA0LjI2NTYyNSAtNC4xNzE4NzUgWiBNIDIuMzU5Mzc1IC03Ljc4MTI1IEwgMi4zNTkzNzUgLTUuMTQwNjI1IEwgNC4xMDkzNzUgLTUuMTQwNjI1IEMgNC42OTE0MDYgLTUuMTQwNjI1IDUuMTI1IC01LjI1IDUuNDA2MjUgLTUuNDY4NzUgQyA1LjY4NzUgLTUuNjg3NSA1LjgyODEyNSAtNi4wMTU2MjUgNS44MjgxMjUgLTYuNDUzMTI1IEMgNS44MjgxMjUgLTYuODk4NDM4IDUuNjg3NSAtNy4yMzQzNzUgNS40MDYyNSAtNy40NTMxMjUgQyA1LjEyNSAtNy42NzE4NzUgNC42OTE0MDYgLTcuNzgxMjUgNC4xMDkzNzUgLTcuNzgxMjUgWiBNIDEuMTcxODc1IC04Ljc1IEwgNC4yMDMxMjUgLTguNzUgQyA1LjEwOTM3NSAtOC43NSA1LjgwMDc4MSAtOC41NjI1IDYuMjgxMjUgLTguMTg3NSBDIDYuNzY5NTMxIC03LjgxMjUgNy4wMTU2MjUgLTcuMjgxMjUgNy4wMTU2MjUgLTYuNTkzNzUgQyA3LjAxNTYyNSAtNi4wNTA3ODEgNi44OTA2MjUgLTUuNjE3MTg4IDYuNjQwNjI1IC01LjI5Njg3NSBDIDYuMzkwNjI1IC00Ljk4NDM3NSA2LjAyMzQzOCAtNC43ODkwNjIgNS41NDY4NzUgLTQuNzE4NzUgQyA2LjEyODkwNiAtNC41OTM3NSA2LjU4MjAzMSAtNC4zMzIwMzEgNi45MDYyNSAtMy45Mzc1IEMgNy4yMjY1NjIgLTMuNTM5MDYyIDcuMzkwNjI1IC0zLjA0Njg3NSA3LjM5MDYyNSAtMi40NTMxMjUgQyA3LjM5MDYyNSAtMS42NzE4NzUgNy4xMjUgLTEuMDY2NDA2IDYuNTkzNzUgLTAuNjQwNjI1IEMgNi4wNjI1IC0wLjIxMDkzOCA1LjMwMDc4MSAwIDQuMzEyNSAwIEwgMS4xNzE4NzUgMCBaIE0gMS4xNzE4NzUgLTguNzUgIi8+Cjwvc3ltYm9sPgo8c3ltYm9sIG92ZXJmbG93PSJ2aXNpYmxlIiBpZD0iZ2x5cGgwLTQiPgo8cGF0aCBzdHlsZT0ic3Ryb2tlOm5vbmU7IiBkPSJNIDQuOTM3NSAtNS41NjI1IEMgNC44MTI1IC01LjYyNSA0LjY3NTc4MSAtNS42NzE4NzUgNC41MzEyNSAtNS43MDMxMjUgQyA0LjM5NDUzMSAtNS43NDIxODggNC4yMzgyODEgLTUuNzY1NjI1IDQuMDYyNSAtNS43NjU2MjUgQyAzLjQ1NzAzMSAtNS43NjU2MjUgMi45ODgyODEgLTUuNTY2NDA2IDIuNjU2MjUgLTUuMTcxODc1IEMgMi4zMzIwMzEgLTQuNzczNDM4IDIuMTcxODc1IC00LjIwMzEyNSAyLjE3MTg3NSAtMy40NTMxMjUgTCAyLjE3MTg3NSAwIEwgMS4wOTM3NSAwIEwgMS4wOTM3NSAtNi41NjI1IEwgMi4xNzE4NzUgLTYuNTYyNSBMIDIuMTcxODc1IC01LjU0Njg3NSBDIDIuMzk4NDM4IC01Ljk0MTQwNiAyLjY5NTMxMiAtNi4yMzQzNzUgMy4wNjI1IC02LjQyMTg3NSBDIDMuNDI1NzgxIC02LjYxNzE4OCAzLjg2NzE4OCAtNi43MTg3NSA0LjM5MDYyNSAtNi43MTg3NSBDIDQuNDYwOTM4IC02LjcxODc1IDQuNTM5MDYyIC02LjcxMDkzOCA0LjYyNSAtNi43MDMxMjUgQyA0LjcxODc1IC02LjY5MTQwNiA0LjgxNjQwNiAtNi42NzU3ODEgNC45MjE4NzUgLTYuNjU2MjUgWiBNIDQuOTM3NSAtNS41NjI1ICIvPgo8L3N5bWJvbD4KPHN5bWJvbCBvdmVyZmxvdz0idmlzaWJsZSIgaWQ9ImdseXBoMS0wIj4KPHBhdGggc3R5bGU9InN0cm9rZTpub25lOyIgZD0iTSAwLjUgMS43NjU2MjUgTCAwLjUgLTcuMDQ2ODc1IEwgNS41IC03LjA0Njg3NSBMIDUuNSAxLjc2NTYyNSBaIE0gMS4wNjI1IDEuMjE4NzUgTCA0LjkzNzUgMS4yMTg3NSBMIDQuOTM3NSAtNi40ODQzNzUgTCAxLjA2MjUgLTYuNDg0Mzc1IFogTSAxLjA2MjUgMS4yMTg3NSAiLz4KPC9zeW1ib2w+CjxzeW1ib2wgb3ZlcmZsb3c9InZpc2libGUiIGlkPSJnbHlwaDEtMSI+CjxwYXRoIHN0eWxlPSJzdHJva2U6bm9uZTsiIGQ9Ik0gNC4wNjI1IC0zLjkzNzUgQyA0LjUzMTI1IC0zLjgzMjAzMSA0Ljg5NDUzMSAtMy42MTcxODggNS4xNTYyNSAtMy4yOTY4NzUgQyA1LjQyNTc4MSAtMi45ODQzNzUgNS41NjI1IC0yLjU5Mzc1IDUuNTYyNSAtMi4xMjUgQyA1LjU2MjUgLTEuNDA2MjUgNS4zMTI1IC0wLjg0NzY1NiA0LjgxMjUgLTAuNDUzMTI1IEMgNC4zMjAzMTIgLTAuMDU0Njg3NSAzLjYxNzE4OCAwLjE0MDYyNSAyLjcwMzEyNSAwLjE0MDYyNSBDIDIuMzk4NDM4IDAuMTQwNjI1IDIuMDg1OTM4IDAuMTA5Mzc1IDEuNzY1NjI1IDAuMDQ2ODc1IEMgMS40NDE0MDYgLTAuMDE1NjI1IDEuMTA5Mzc1IC0wLjEwMTU2MiAwLjc2NTYyNSAtMC4yMTg3NSBMIDAuNzY1NjI1IC0xLjE3MTg3NSBDIDEuMDM1MTU2IC0xLjAxNTYyNSAxLjMzMjAzMSAtMC44OTQ1MzEgMS42NTYyNSAtMC44MTI1IEMgMS45ODgyODEgLTAuNzI2NTYyIDIuMzMyMDMxIC0wLjY4NzUgMi42ODc1IC0wLjY4NzUgQyAzLjMwMDc4MSAtMC42ODc1IDMuNzY5NTMxIC0wLjgwNDY4OCA0LjA5Mzc1IC0xLjA0Njg3NSBDIDQuNDE0MDYyIC0xLjI5Njg3NSA0LjU3ODEyNSAtMS42NTYyNSA0LjU3ODEyNSAtMi4xMjUgQyA0LjU3ODEyNSAtMi41NTA3ODEgNC40MjU3ODEgLTIuODgyODEyIDQuMTI1IC0zLjEyNSBDIDMuODIwMzEyIC0zLjM2MzI4MSAzLjQwNjI1IC0zLjQ4NDM3NSAyLjg3NSAtMy40ODQzNzUgTCAyLjAxNTYyNSAtMy40ODQzNzUgTCAyLjAxNTYyNSAtNC4yOTY4NzUgTCAyLjkwNjI1IC00LjI5Njg3NSBDIDMuMzk0NTMxIC00LjI5Njg3NSAzLjc2NTYyNSAtNC4zOTQ1MzEgNC4wMTU2MjUgLTQuNTkzNzUgQyA0LjI3MzQzOCAtNC43ODkwNjIgNC40MDYyNSAtNS4wNzAzMTIgNC40MDYyNSAtNS40Mzc1IEMgNC40MDYyNSAtNS44MDA3ODEgNC4yNjk1MzEgLTYuMDgyMDMxIDQgLTYuMjgxMjUgQyAzLjczODI4MSAtNi40ODgyODEgMy4zNjMyODEgLTYuNTkzNzUgMi44NzUgLTYuNTkzNzUgQyAyLjYwMTU2MiAtNi41OTM3NSAyLjMxMjUgLTYuNTYyNSAyIC02LjUgQyAxLjY4NzUgLTYuNDQ1MzEyIDEuMzQ3NjU2IC02LjM1OTM3NSAwLjk4NDM3NSAtNi4yMzQzNzUgTCAwLjk4NDM3NSAtNy4xMDkzNzUgQyAxLjM1OTM3NSAtNy4yMTA5MzggMS43MDcwMzEgLTcuMjg5MDYyIDIuMDMxMjUgLTcuMzQzNzUgQyAyLjM2MzI4MSAtNy4zOTQ1MzEgMi42NzE4NzUgLTcuNDIxODc1IDIuOTUzMTI1IC03LjQyMTg3NSBDIDMuNzAzMTI1IC03LjQyMTg3NSA0LjI5Njg3NSAtNy4yNSA0LjczNDM3NSAtNi45MDYyNSBDIDUuMTcxODc1IC02LjU3MDMxMiA1LjM5MDYyNSAtNi4xMTMyODEgNS4zOTA2MjUgLTUuNTMxMjUgQyA1LjM5MDYyNSAtNS4xMjUgNS4yNzM0MzggLTQuNzgxMjUgNS4wNDY4NzUgLTQuNSBDIDQuODE2NDA2IC00LjIyNjU2MiA0LjQ4ODI4MSAtNC4wMzkwNjIgNC4wNjI1IC0zLjkzNzUgWiBNIDQuMDYyNSAtMy45Mzc1ICIvPgo8L3N5bWJvbD4KPC9nPgo8L2RlZnM+CjxnIGlkPSJzdXJmYWNlNTQiPgo8cmVjdCB4PSIwIiB5PSIwIiB3aWR0aD0iMzAwIiBoZWlnaHQ9IjMwMCIgc3R5bGU9ImZpbGw6cmdiKDEwMCUsMTAwJSwxMDAlKTtmaWxsLW9wYWNpdHk6MTtzdHJva2U6bm9uZTsiLz4KPGcgc3R5bGU9ImZpbGw6cmdiKDAlLDAlLDEwMCUpO2ZpbGwtb3BhY2l0eToxOyI+CiAgPHVzZSB4bGluazpocmVmPSIjZ2x5cGgwLTEiIHg9Ijk2LjA0Mjk2OSIgeT0iMTYzLjcwMTE3MiIvPgo8L2c+CjxnIHN0eWxlPSJmaWxsOnJnYigwJSwwJSwxMDAlKTtmaWxsLW9wYWNpdHk6MTsiPgogIDx1c2UgeGxpbms6aHJlZj0iI2dseXBoMS0xIiB4PSIxMDUuMDY2NDA2IiB5PSIxNjguNTgzOTg0Ii8+CjwvZz4KPGcgc3R5bGU9ImZpbGw6cmdiKDAlLDAlLDEwMCUpO2ZpbGwtb3BhY2l0eToxOyI+CiAgPHVzZSB4bGluazpocmVmPSIjZ2x5cGgwLTIiIHg9IjExMS40Mjg3MTEiIHk9IjE2My43MDExNzIiLz4KPC9nPgo8ZyBzdHlsZT0iZmlsbDpyZ2IoNTAlLDMwJSwxMCUpO2ZpbGwtb3BhY2l0eToxOyI+CiAgPHVzZSB4bGluazpocmVmPSIjZ2x5cGgwLTMiIHg9IjE0Mi4zMzIwMzEiIHk9IjE0NC41NzYxNzIiLz4KICA8dXNlIHhsaW5rOmhyZWY9IiNnbHlwaDAtNCIgeD0iMTUwLjU2NDQ1MyIgeT0iMTQ0LjU3NjE3MiIvPgogIDx1c2UgeGxpbms6aHJlZj0iI2dseXBoMC0xIiB4PSIxNTUuNDk4MDQ3IiB5PSIxNDQuNTc2MTcyIi8+CjwvZz4KPHBhdGggc3R5bGU9ImZpbGw6bm9uZTtzdHJva2Utd2lkdGg6MS4yO3N0cm9rZS1saW5lY2FwOmJ1dHQ7c3Ryb2tlLWxpbmVqb2luOm1pdGVyO3N0cm9rZTpyZ2IoMCUsMCUsMTAwJSk7c3Ryb2tlLW9wYWNpdHk6MTtzdHJva2UtbWl0ZXJsaW1pdDoxMDsiIGQ9Ik0gMTIyLjQ0MTQwNiAxNTYuMzQ3NjU2IEwgMTMxLjY4NzUgMTUxLjAxMTcxOSAiLz4KPHBhdGggc3R5bGU9ImZpbGw6bm9uZTtzdHJva2Utd2lkdGg6MS4yO3N0cm9rZS1saW5lY2FwOmJ1dHQ7c3Ryb2tlLWxpbmVqb2luOm1pdGVyO3N0cm9rZTpyZ2IoNTAlLDMwJSwxMCUpO3N0cm9rZS1vcGFjaXR5OjE7c3Ryb2tlLW1pdGVybGltaXQ6MTA7IiBkPSJNIDEzMS42ODc1IDE1MS4wMTE3MTkgTCAxNDAuOTMzNTk0IDE0NS42NzE4NzUgIi8+CjxwYXRoIHN0eWxlPSJmaWxsOm5vbmU7c3Ryb2tlLXdpZHRoOjEuMjtzdHJva2UtbGluZWNhcDpidXR0O3N0cm9rZS1saW5lam9pbjptaXRlcjtzdHJva2U6cmdiKDUwJSwzMCUsMTAlKTtzdHJva2Utb3BhY2l0eToxO3N0cm9rZS1taXRlcmxpbWl0OjEwOyIgZD0iTSAxNjMuODg2NzE5IDE1Mi43ODUxNTYgTCAxNzIuNTcwMzEyIDE1Ny43OTY4NzUgIi8+CjxwYXRoIHN0eWxlPSJmaWxsOm5vbmU7c3Ryb2tlLXdpZHRoOjEuMjtzdHJva2UtbGluZWNhcDpidXR0O3N0cm9rZS1saW5lam9pbjptaXRlcjtzdHJva2U6cmdiKDAlLDAlLDAlKTtzdHJva2Utb3BhY2l0eToxO3N0cm9rZS1taXRlcmxpbWl0OjEwOyIgZD0iTSAxNzIuNTcwMzEyIDE1Ny43OTY4NzUgTCAxODEuMjUgMTYyLjgwODU5NCAiLz4KPHBhdGggc3R5bGU9ImZpbGw6bm9uZTtzdHJva2Utd2lkdGg6MS4yO3N0cm9rZS1saW5lY2FwOmJ1dHQ7c3Ryb2tlLWxpbmVqb2luOm1pdGVyO3N0cm9rZTpyZ2IoNTAlLDMwJSwxMCUpO3N0cm9rZS1vcGFjaXR5OjE7c3Ryb2tlLW1pdGVybGltaXQ6MTA7IiBkPSJNIDE2Ny42MzY3MTkgMTQ2LjI4OTA2MiBMIDE3Ni4zMjAzMTIgMTUxLjMwMDc4MSAiLz4KPHBhdGggc3R5bGU9ImZpbGw6bm9uZTtzdHJva2Utd2lkdGg6MS4yO3N0cm9rZS1saW5lY2FwOmJ1dHQ7c3Ryb2tlLWxpbmVqb2luOm1pdGVyO3N0cm9rZTpyZ2IoMCUsMCUsMCUpO3N0cm9rZS1vcGFjaXR5OjE7c3Ryb2tlLW1pdGVybGltaXQ6MTA7IiBkPSJNIDE3Ni4zMjAzMTIgMTUxLjMwMDc4MSBMIDE4NSAxNTYuMzE2NDA2ICIvPgo8L2c+Cjwvc3ZnPgo='
p144
sa(dp145
g2
(dp146
g4
(lp147
(dp148
g7
g8
sg9
g13
sg10
g11
sa(dp149
g7
g13
sg9
g20
sg10
g11
sa(dp150
g7
g32
sg9
g32
sg10
g11
sa(dp151
g7
g20
sg9
g43
sg10
g11
sasg14
(lp152
(dp153
g17
g8
sg18
g13
sa(dp154
g17
g13
sg18
g32
sa(dp155
g17
g13
sg18
g20
sassg19
g20
sg21
S'13'
p156
sg22
S'C=BrN.F'
p157
sg24
S'PD94bWwgdmVyc2lvbj0iMS4wIiBlbmNvZGluZz0iVVRGLTgiPz4KPHN2ZyB4bWxucz0iaHR0cDovL3d3dy53My5vcmcvMjAwMC9zdmciIHhtbG5zOnhsaW5rPSJodHRwOi8vd3d3LnczLm9yZy8xOTk5L3hsaW5rIiB3aWR0aD0iMzAwcHQiIGhlaWdodD0iMzAwcHQiIHZpZXdCb3g9IjAgMCAzMDAgMzAwIiB2ZXJzaW9uPSIxLjEiPgo8ZGVmcz4KPGc+CjxzeW1ib2wgb3ZlcmZsb3c9InZpc2libGUiIGlkPSJnbHlwaDAtMCI+CjxwYXRoIHN0eWxlPSJzdHJva2U6bm9uZTsiIGQ9Ik0gMC41OTM3NSAyLjEyNSBMIDAuNTkzNzUgLTguNDY4NzUgTCA2LjU5Mzc1IC04LjQ2ODc1IEwgNi41OTM3NSAyLjEyNSBaIE0gMS4yNjU2MjUgMS40NTMxMjUgTCA1LjkzNzUgMS40NTMxMjUgTCA1LjkzNzUgLTcuNzgxMjUgTCAxLjI2NTYyNSAtNy43ODEyNSBaIE0gMS4yNjU2MjUgMS40NTMxMjUgIi8+Cjwvc3ltYm9sPgo8c3ltYm9sIG92ZXJmbG93PSJ2aXNpYmxlIiBpZD0iZ2x5cGgwLTEiPgo8cGF0aCBzdHlsZT0ic3Ryb2tlOm5vbmU7IiBkPSJNIDEuMTcxODc1IC04Ljc1IEwgMi4zNTkzNzUgLTguNzUgTCAyLjM1OTM3NSAtNS4xNTYyNSBMIDYuNjU2MjUgLTUuMTU2MjUgTCA2LjY1NjI1IC04Ljc1IEwgNy44NDM3NSAtOC43NSBMIDcuODQzNzUgMCBMIDYuNjU2MjUgMCBMIDYuNjU2MjUgLTQuMTcxODc1IEwgMi4zNTkzNzUgLTQuMTcxODc1IEwgMi4zNTkzNzUgMCBMIDEuMTcxODc1IDAgWiBNIDEuMTcxODc1IC04Ljc1ICIvPgo8L3N5bWJvbD4KPHN5bWJvbCBvdmVyZmxvdz0idmlzaWJsZSIgaWQ9ImdseXBoMC0yIj4KPHBhdGggc3R5bGU9InN0cm9rZTpub25lOyIgZD0iTSAxLjE3MTg3NSAtOC43NSBMIDIuNzY1NjI1IC04Ljc1IEwgNi42NTYyNSAtMS40Mzc1IEwgNi42NTYyNSAtOC43NSBMIDcuNzk2ODc1IC04Ljc1IEwgNy43OTY4NzUgMCBMIDYuMjAzMTI1IDAgTCAyLjMyODEyNSAtNy4zMTI1IEwgMi4zMjgxMjUgMCBMIDEuMTcxODc1IDAgWiBNIDEuMTcxODc1IC04Ljc1ICIvPgo8L3N5bWJvbD4KPHN5bWJvbCBvdmVyZmxvdz0idmlzaWJsZSIgaWQ9ImdseXBoMC0zIj4KPHBhdGggc3R5bGU9InN0cm9rZTpub25lOyIgZD0iTSAyLjM1OTM3NSAtNC4xNzE4NzUgTCAyLjM1OTM3NSAtMC45Njg3NSBMIDQuMjY1NjI1IC0wLjk2ODc1IEMgNC44OTg0MzggLTAuOTY4NzUgNS4zNjcxODggLTEuMDk3NjU2IDUuNjcxODc1IC0xLjM1OTM3NSBDIDUuOTg0Mzc1IC0xLjYyODkwNiA2LjE0MDYyNSAtMi4wMzUxNTYgNi4xNDA2MjUgLTIuNTc4MTI1IEMgNi4xNDA2MjUgLTMuMTI4OTA2IDUuOTg0Mzc1IC0zLjUzMTI1IDUuNjcxODc1IC0zLjc4MTI1IEMgNS4zNjcxODggLTQuMDM5MDYyIDQuODk4NDM4IC00LjE3MTg3NSA0LjI2NTYyNSAtNC4xNzE4NzUgWiBNIDIuMzU5Mzc1IC03Ljc4MTI1IEwgMi4zNTkzNzUgLTUuMTQwNjI1IEwgNC4xMDkzNzUgLTUuMTQwNjI1IEMgNC42OTE0MDYgLTUuMTQwNjI1IDUuMTI1IC01LjI1IDUuNDA2MjUgLTUuNDY4NzUgQyA1LjY4NzUgLTUuNjg3NSA1LjgyODEyNSAtNi4wMTU2MjUgNS44MjgxMjUgLTYuNDUzMTI1IEMgNS44MjgxMjUgLTYuODk4NDM4IDUuNjg3NSAtNy4yMzQzNzUgNS40MDYyNSAtNy40NTMxMjUgQyA1LjEyNSAtNy42NzE4NzUgNC42OTE0MDYgLTcuNzgxMjUgNC4xMDkzNzUgLTcuNzgxMjUgWiBNIDEuMTcxODc1IC04Ljc1IEwgNC4yMDMxMjUgLTguNzUgQyA1LjEwOTM3NSAtOC43NSA1LjgwMDc4MSAtOC41NjI1IDYuMjgxMjUgLTguMTg3NSBDIDYuNzY5NTMxIC03LjgxMjUgNy4wMTU2MjUgLTcuMjgxMjUgNy4wMTU2MjUgLTYuNTkzNzUgQyA3LjAxNTYyNSAtNi4wNTA3ODEgNi44OTA2MjUgLTUuNjE3MTg4IDYuNjQwNjI1IC01LjI5Njg3NSBDIDYuMzkwNjI1IC00Ljk4NDM3NSA2LjAyMzQzOCAtNC43ODkwNjIgNS41NDY4NzUgLTQuNzE4NzUgQyA2LjEyODkwNiAtNC41OTM3NSA2LjU4MjAzMSAtNC4zMzIwMzEgNi45MDYyNSAtMy45Mzc1IEMgNy4yMjY1NjIgLTMuNTM5MDYyIDcuMzkwNjI1IC0zLjA0Njg3NSA3LjM5MDYyNSAtMi40NTMxMjUgQyA3LjM5MDYyNSAtMS42NzE4NzUgNy4xMjUgLTEuMDY2NDA2IDYuNTkzNzUgLTAuNjQwNjI1IEMgNi4wNjI1IC0wLjIxMDkzOCA1LjMwMDc4MSAwIDQuMzEyNSAwIEwgMS4xNzE4NzUgMCBaIE0gMS4xNzE4NzUgLTguNzUgIi8+Cjwvc3ltYm9sPgo8c3ltYm9sIG92ZXJmbG93PSJ2aXNpYmxlIiBpZD0iZ2x5cGgwLTQiPgo8cGF0aCBzdHlsZT0ic3Ryb2tlOm5vbmU7IiBkPSJNIDQuOTM3NSAtNS41NjI1IEMgNC44MTI1IC01LjYyNSA0LjY3NTc4MSAtNS42NzE4NzUgNC41MzEyNSAtNS43MDMxMjUgQyA0LjM5NDUzMSAtNS43NDIxODggNC4yMzgyODEgLTUuNzY1NjI1IDQuMDYyNSAtNS43NjU2MjUgQyAzLjQ1NzAzMSAtNS43NjU2MjUgMi45ODgyODEgLTUuNTY2NDA2IDIuNjU2MjUgLTUuMTcxODc1IEMgMi4zMzIwMzEgLTQuNzczNDM4IDIuMTcxODc1IC00LjIwMzEyNSAyLjE3MTg3NSAtMy40NTMxMjUgTCAyLjE3MTg3NSAwIEwgMS4wOTM3NSAwIEwgMS4wOTM3NSAtNi41NjI1IEwgMi4xNzE4NzUgLTYuNTYyNSBMIDIuMTcxODc1IC01LjU0Njg3NSBDIDIuMzk4NDM4IC01Ljk0MTQwNiAyLjY5NTMxMiAtNi4yMzQzNzUgMy4wNjI1IC02LjQyMTg3NSBDIDMuNDI1NzgxIC02LjYxNzE4OCAzLjg2NzE4OCAtNi43MTg3NSA0LjM5MDYyNSAtNi43MTg3NSBDIDQuNDYwOTM4IC02LjcxODc1IDQuNTM5MDYyIC02LjcxMDkzOCA0LjYyNSAtNi43MDMxMjUgQyA0LjcxODc1IC02LjY5MTQwNiA0LjgxNjQwNiAtNi42NzU3ODEgNC45MjE4NzUgLTYuNjU2MjUgWiBNIDQuOTM3NSAtNS41NjI1ICIvPgo8L3N5bWJvbD4KPHN5bWJvbCBvdmVyZmxvdz0idmlzaWJsZSIgaWQ9ImdseXBoMC01Ij4KPHBhdGggc3R5bGU9InN0cm9rZTpub25lOyIgZD0iTSAxLjE3MTg3NSAtOC43NSBMIDYuMjAzMTI1IC04Ljc1IEwgNi4yMDMxMjUgLTcuNzUgTCAyLjM1OTM3NSAtNy43NSBMIDIuMzU5Mzc1IC01LjE3MTg3NSBMIDUuODI4MTI1IC01LjE3MTg3NSBMIDUuODI4MTI1IC00LjE3MTg3NSBMIDIuMzU5Mzc1IC00LjE3MTg3NSBMIDIuMzU5Mzc1IDAgTCAxLjE3MTg3NSAwIFogTSAxLjE3MTg3NSAtOC43NSAiLz4KPC9zeW1ib2w+CjxzeW1ib2wgb3ZlcmZsb3c9InZpc2libGUiIGlkPSJnbHlwaDEtMCI+CjxwYXRoIHN0eWxlPSJzdHJva2U6bm9uZTsiIGQ9Ik0gMC41IDEuNzY1NjI1IEwgMC41IC03LjA0Njg3NSBMIDUuNSAtNy4wNDY4NzUgTCA1LjUgMS43NjU2MjUgWiBNIDEuMDYyNSAxLjIxODc1IEwgNC45Mzc1IDEuMjE4NzUgTCA0LjkzNzUgLTYuNDg0Mzc1IEwgMS4wNjI1IC02LjQ4NDM3NSBaIE0gMS4wNjI1IDEuMjE4NzUgIi8+Cjwvc3ltYm9sPgo8c3ltYm9sIG92ZXJmbG93PSJ2aXNpYmxlIiBpZD0iZ2x5cGgxLTEiPgo8cGF0aCBzdHlsZT0ic3Ryb2tlOm5vbmU7IiBkPSJNIDQuMDYyNSAtMy45Mzc1IEMgNC41MzEyNSAtMy44MzIwMzEgNC44OTQ1MzEgLTMuNjE3MTg4IDUuMTU2MjUgLTMuMjk2ODc1IEMgNS40MjU3ODEgLTIuOTg0Mzc1IDUuNTYyNSAtMi41OTM3NSA1LjU2MjUgLTIuMTI1IEMgNS41NjI1IC0xLjQwNjI1IDUuMzEyNSAtMC44NDc2NTYgNC44MTI1IC0wLjQ1MzEyNSBDIDQuMzIwMzEyIC0wLjA1NDY4NzUgMy42MTcxODggMC4xNDA2MjUgMi43MDMxMjUgMC4xNDA2MjUgQyAyLjM5ODQzOCAwLjE0MDYyNSAyLjA4NTkzOCAwLjEwOTM3NSAxLjc2NTYyNSAwLjA0Njg3NSBDIDEuNDQxNDA2IC0wLjAxNTYyNSAxLjEwOTM3NSAtMC4xMDE1NjIgMC43NjU2MjUgLTAuMjE4NzUgTCAwLjc2NTYyNSAtMS4xNzE4NzUgQyAxLjAzNTE1NiAtMS4wMTU2MjUgMS4zMzIwMzEgLTAuODk0NTMxIDEuNjU2MjUgLTAuODEyNSBDIDEuOTg4MjgxIC0wLjcyNjU2MiAyLjMzMjAzMSAtMC42ODc1IDIuNjg3NSAtMC42ODc1IEMgMy4zMDA3ODEgLTAuNjg3NSAzLjc2OTUzMSAtMC44MDQ2ODggNC4wOTM3NSAtMS4wNDY4NzUgQyA0LjQxNDA2MiAtMS4yOTY4NzUgNC41NzgxMjUgLTEuNjU2MjUgNC41NzgxMjUgLTIuMTI1IEMgNC41NzgxMjUgLTIuNTUwNzgxIDQuNDI1NzgxIC0yLjg4MjgxMiA0LjEyNSAtMy4xMjUgQyAzLjgyMDMxMiAtMy4zNjMyODEgMy40MDYyNSAtMy40ODQzNzUgMi44NzUgLTMuNDg0Mzc1IEwgMi4wMTU2MjUgLTMuNDg0Mzc1IEwgMi4wMTU2MjUgLTQuMjk2ODc1IEwgMi45MDYyNSAtNC4yOTY4NzUgQyAzLjM5NDUzMSAtNC4yOTY4NzUgMy43NjU2MjUgLTQuMzk0NTMxIDQuMDE1NjI1IC00LjU5Mzc1IEMgNC4yNzM0MzggLTQuNzg5MDYyIDQuNDA2MjUgLTUuMDcwMzEyIDQuNDA2MjUgLTUuNDM3NSBDIDQuNDA2MjUgLTUuODAwNzgxIDQuMjY5NTMxIC02LjA4MjAzMSA0IC02LjI4MTI1IEMgMy43MzgyODEgLTYuNDg4MjgxIDMuMzYzMjgxIC02LjU5Mzc1IDIuODc1IC02LjU5Mzc1IEMgMi42MDE1NjIgLTYuNTkzNzUgMi4zMTI1IC02LjU2MjUgMiAtNi41IEMgMS42ODc1IC02LjQ0NTMxMiAxLjM0NzY1NiAtNi4zNTkzNzUgMC45ODQzNzUgLTYuMjM0Mzc1IEwgMC45ODQzNzUgLTcuMTA5Mzc1IEMgMS4zNTkzNzUgLTcuMjEwOTM4IDEuNzA3MDMxIC03LjI4OTA2MiAyLjAzMTI1IC03LjM0Mzc1IEMgMi4zNjMyODEgLTcuMzk0NTMxIDIuNjcxODc1IC03LjQyMTg3NSAyLjk1MzEyNSAtNy40MjE4NzUgQyAzLjcwMzEyNSAtNy40MjE4NzUgNC4yOTY4NzUgLTcuMjUgNC43MzQzNzUgLTYuOTA2MjUgQyA1LjE3MTg3NSAtNi41NzAzMTIgNS4zOTA2MjUgLTYuMTEzMjgxIDUuMzkwNjI1IC01LjUzMTI1IEMgNS4zOTA2MjUgLTUuMTI1IDUuMjczNDM4IC00Ljc4MTI1IDUuMDQ2ODc1IC00LjUgQyA0LjgxNjQwNiAtNC4yMjY1NjIgNC40ODgyODEgLTQuMDM5MDYyIDQuMDYyNSAtMy45Mzc1IFogTSA0LjA2MjUgLTMuOTM3NSAiLz4KPC9zeW1ib2w+CjwvZz4KPC9kZWZzPgo8ZyBpZD0ic3VyZmFjZTU4Ij4KPHJlY3QgeD0iMCIgeT0iMCIgd2lkdGg9IjMwMCIgaGVpZ2h0PSIzMDAiIHN0eWxlPSJmaWxsOnJnYigxMDAlLDEwMCUsMTAwJSk7ZmlsbC1vcGFjaXR5OjE7c3Ryb2tlOm5vbmU7Ii8+CjxnIHN0eWxlPSJmaWxsOnJnYigwJSwwJSwxMDAlKTtmaWxsLW9wYWNpdHk6MTsiPgogIDx1c2UgeGxpbms6aHJlZj0iI2dseXBoMC0xIiB4PSI5Ni4wNDI5NjkiIHk9IjE3Ni40NTExNzIiLz4KPC9nPgo8ZyBzdHlsZT0iZmlsbDpyZ2IoMCUsMCUsMTAwJSk7ZmlsbC1vcGFjaXR5OjE7Ij4KICA8dXNlIHhsaW5rOmhyZWY9IiNnbHlwaDEtMSIgeD0iMTA1LjA2NjQwNiIgeT0iMTgxLjMzMzk4NCIvPgo8L2c+CjxnIHN0eWxlPSJmaWxsOnJnYigwJSwwJSwxMDAlKTtmaWxsLW9wYWNpdHk6MTsiPgogIDx1c2UgeGxpbms6aHJlZj0iI2dseXBoMC0yIiB4PSIxMTEuNDI4NzExIiB5PSIxNzYuNDUxMTcyIi8+CjwvZz4KPGcgc3R5bGU9ImZpbGw6cmdiKDUwJSwzMCUsMTAlKTtmaWxsLW9wYWNpdHk6MTsiPgogIDx1c2UgeGxpbms6aHJlZj0iI2dseXBoMC0zIiB4PSIxNDIuMzMyMDMxIiB5PSIxNTcuMzI2MTcyIi8+CiAgPHVzZSB4bGluazpocmVmPSIjZ2x5cGgwLTQiIHg9IjE1MC41NjQ0NTMiIHk9IjE1Ny4zMjYxNzIiLz4KICA8dXNlIHhsaW5rOmhyZWY9IiNnbHlwaDAtMSIgeD0iMTU1LjQ5ODA0NyIgeT0iMTU3LjMyNjE3MiIvPgo8L2c+CjxnIHN0eWxlPSJmaWxsOnJnYigyMCUsODAlLDgwJSk7ZmlsbC1vcGFjaXR5OjE7Ij4KICA8dXNlIHhsaW5rOmhyZWY9IiNnbHlwaDAtMSIgeD0iMTQyIiB5PSIxMzEuODI2MTcyIi8+CiAgPHVzZSB4bGluazpocmVmPSIjZ2x5cGgwLTUiIHg9IjE1MS4wMjM0MzgiIHk9IjEzMS44MjYxNzIiLz4KPC9nPgo8cGF0aCBzdHlsZT0iZmlsbDpub25lO3N0cm9rZS13aWR0aDoxLjI7c3Ryb2tlLWxpbmVjYXA6YnV0dDtzdHJva2UtbGluZWpvaW46bWl0ZXI7c3Ryb2tlOnJnYigwJSwwJSwxMDAlKTtzdHJva2Utb3BhY2l0eToxO3N0cm9rZS1taXRlcmxpbWl0OjEwOyIgZD0iTSAxMjIuNDQxNDA2IDE2OS4wOTc2NTYgTCAxMzEuNjg3NSAxNjMuNzYxNzE5ICIvPgo8cGF0aCBzdHlsZT0iZmlsbDpub25lO3N0cm9rZS13aWR0aDoxLjI7c3Ryb2tlLWxpbmVjYXA6YnV0dDtzdHJva2UtbGluZWpvaW46bWl0ZXI7c3Ryb2tlOnJnYig1MCUsMzAlLDEwJSk7c3Ryb2tlLW9wYWNpdHk6MTtzdHJva2UtbWl0ZXJsaW1pdDoxMDsiIGQ9Ik0gMTMxLjY4NzUgMTYzLjc2MTcxOSBMIDE0MC45MzM1OTQgMTU4LjQyMTg3NSAiLz4KPHBhdGggc3R5bGU9ImZpbGw6bm9uZTtzdHJva2Utd2lkdGg6MS4yO3N0cm9rZS1saW5lY2FwOmJ1dHQ7c3Ryb2tlLWxpbmVqb2luOm1pdGVyO3N0cm9rZTpyZ2IoNTAlLDMwJSwxMCUpO3N0cm9rZS1vcGFjaXR5OjE7c3Ryb2tlLW1pdGVybGltaXQ6MTA7IiBkPSJNIDE2My44ODY3MTkgMTY1LjUzNTE1NiBMIDE3Mi41NzAzMTIgMTcwLjU0Njg3NSAiLz4KPHBhdGggc3R5bGU9ImZpbGw6bm9uZTtzdHJva2Utd2lkdGg6MS4yO3N0cm9rZS1saW5lY2FwOmJ1dHQ7c3Ryb2tlLWxpbmVqb2luOm1pdGVyO3N0cm9rZTpyZ2IoMCUsMCUsMCUpO3N0cm9rZS1vcGFjaXR5OjE7c3Ryb2tlLW1pdGVybGltaXQ6MTA7IiBkPSJNIDE3Mi41NzAzMTIgMTcwLjU0Njg3NSBMIDE4MS4yNSAxNzUuNTU4NTk0ICIvPgo8cGF0aCBzdHlsZT0iZmlsbDpub25lO3N0cm9rZS13aWR0aDoxLjI7c3Ryb2tlLWxpbmVjYXA6YnV0dDtzdHJva2UtbGluZWpvaW46bWl0ZXI7c3Ryb2tlOnJnYig1MCUsMzAlLDEwJSk7c3Ryb2tlLW9wYWNpdHk6MTtzdHJva2UtbWl0ZXJsaW1pdDoxMDsiIGQ9Ik0gMTY3LjYzNjcxOSAxNTkuMDM5MDYyIEwgMTc2LjMyMDMxMiAxNjQuMDUwNzgxICIvPgo8cGF0aCBzdHlsZT0iZmlsbDpub25lO3N0cm9rZS13aWR0aDoxLjI7c3Ryb2tlLWxpbmVjYXA6YnV0dDtzdHJva2UtbGluZWpvaW46bWl0ZXI7c3Ryb2tlOnJnYigwJSwwJSwwJSk7c3Ryb2tlLW9wYWNpdHk6MTtzdHJva2UtbWl0ZXJsaW1pdDoxMDsiIGQ9Ik0gMTc2LjMyMDMxMiAxNjQuMDUwNzgxIEwgMTg1IDE2OS4wNjY0MDYgIi8+CjwvZz4KPC9zdmc+Cg=='
p158
sa(dp159
g2
(dp160
g4
(lp161
(dp162
g7
g8
sg9
g8
sg10
g11
sa(dp163
g7
g13
sg9
g32
sg10
g11
sasg14
(lp164
(dp165
g17
g8
sg18
g13
sassg19
g20
sg21
S'14'
p166
sg22
S'CO'
p167
sg24
S'PD94bWwgdmVyc2lvbj0iMS4wIiBlbmNvZGluZz0iVVRGLTgiPz4KPHN2ZyB4bWxucz0iaHR0cDovL3d3dy53My5vcmcvMjAwMC9zdmciIHhtbG5zOnhsaW5rPSJodHRwOi8vd3d3LnczLm9yZy8xOTk5L3hsaW5rIiB3aWR0aD0iMzAwcHQiIGhlaWdodD0iMzAwcHQiIHZpZXdCb3g9IjAgMCAzMDAgMzAwIiB2ZXJzaW9uPSIxLjEiPgo8ZGVmcz4KPGc+CjxzeW1ib2wgb3ZlcmZsb3c9InZpc2libGUiIGlkPSJnbHlwaDAtMCI+CjxwYXRoIHN0eWxlPSJzdHJva2U6bm9uZTsiIGQ9Ik0gMC41OTM3NSAyLjEyNSBMIDAuNTkzNzUgLTguNDY4NzUgTCA2LjU5Mzc1IC04LjQ2ODc1IEwgNi41OTM3NSAyLjEyNSBaIE0gMS4yNjU2MjUgMS40NTMxMjUgTCA1LjkzNzUgMS40NTMxMjUgTCA1LjkzNzUgLTcuNzgxMjUgTCAxLjI2NTYyNSAtNy43ODEyNSBaIE0gMS4yNjU2MjUgMS40NTMxMjUgIi8+Cjwvc3ltYm9sPgo8c3ltYm9sIG92ZXJmbG93PSJ2aXNpYmxlIiBpZD0iZ2x5cGgwLTEiPgo8cGF0aCBzdHlsZT0ic3Ryb2tlOm5vbmU7IiBkPSJNIDEuMTcxODc1IC04Ljc1IEwgMi4zNTkzNzUgLTguNzUgTCAyLjM1OTM3NSAtNS4xNTYyNSBMIDYuNjU2MjUgLTUuMTU2MjUgTCA2LjY1NjI1IC04Ljc1IEwgNy44NDM3NSAtOC43NSBMIDcuODQzNzUgMCBMIDYuNjU2MjUgMCBMIDYuNjU2MjUgLTQuMTcxODc1IEwgMi4zNTkzNzUgLTQuMTcxODc1IEwgMi4zNTkzNzUgMCBMIDEuMTcxODc1IDAgWiBNIDEuMTcxODc1IC04Ljc1ICIvPgo8L3N5bWJvbD4KPHN5bWJvbCBvdmVyZmxvdz0idmlzaWJsZSIgaWQ9ImdseXBoMC0yIj4KPHBhdGggc3R5bGU9InN0cm9rZTpub25lOyIgZD0iTSA0LjczNDM3NSAtNy45NTMxMjUgQyAzLjg2NzE4OCAtNy45NTMxMjUgMy4xNzk2ODggLTcuNjI4OTA2IDIuNjcxODc1IC02Ljk4NDM3NSBDIDIuMTcxODc1IC02LjM0NzY1NiAxLjkyMTg3NSAtNS40NzI2NTYgMS45MjE4NzUgLTQuMzU5Mzc1IEMgMS45MjE4NzUgLTMuMjY1NjI1IDIuMTcxODc1IC0yLjM5NDUzMSAyLjY3MTg3NSAtMS43NSBDIDMuMTc5Njg4IC0xLjExMzI4MSAzLjg2NzE4OCAtMC43OTY4NzUgNC43MzQzNzUgLTAuNzk2ODc1IEMgNS41ODU5MzggLTAuNzk2ODc1IDYuMjY1NjI1IC0xLjExMzI4MSA2Ljc2NTYyNSAtMS43NSBDIDcuMjczNDM4IC0yLjM5NDUzMSA3LjUzMTI1IC0zLjI2NTYyNSA3LjUzMTI1IC00LjM1OTM3NSBDIDcuNTMxMjUgLTUuNDcyNjU2IDcuMjczNDM4IC02LjM0NzY1NiA2Ljc2NTYyNSAtNi45ODQzNzUgQyA2LjI2NTYyNSAtNy42Mjg5MDYgNS41ODU5MzggLTcuOTUzMTI1IDQuNzM0Mzc1IC03Ljk1MzEyNSBaIE0gNC43MzQzNzUgLTguOTA2MjUgQyA1Ljk1MzEyNSAtOC45MDYyNSA2LjkyNTc4MSAtOC40OTIxODggNy42NTYyNSAtNy42NzE4NzUgQyA4LjM5NDUzMSAtNi44NDc2NTYgOC43NjU2MjUgLTUuNzQyMTg4IDguNzY1NjI1IC00LjM1OTM3NSBDIDguNzY1NjI1IC0yLjk4NDM3NSA4LjM5NDUzMSAtMS44ODI4MTIgNy42NTYyNSAtMS4wNjI1IEMgNi45MjU3ODEgLTAuMjM4MjgxIDUuOTUzMTI1IDAuMTcxODc1IDQuNzM0Mzc1IDAuMTcxODc1IEMgMy41MDM5MDYgMC4xNzE4NzUgMi41MTk1MzEgLTAuMjM4MjgxIDEuNzgxMjUgLTEuMDYyNSBDIDEuMDM5MDYyIC0xLjg4MjgxMiAwLjY3MTg3NSAtMi45ODQzNzUgMC42NzE4NzUgLTQuMzU5Mzc1IEMgMC42NzE4NzUgLTUuNzQyMTg4IDEuMDM5MDYyIC02Ljg0NzY1NiAxLjc4MTI1IC03LjY3MTg3NSBDIDIuNTE5NTMxIC04LjQ5MjE4OCAzLjUwMzkwNiAtOC45MDYyNSA0LjczNDM3NSAtOC45MDYyNSBaIE0gNC43MzQzNzUgLTguOTA2MjUgIi8+Cjwvc3ltYm9sPgo8c3ltYm9sIG92ZXJmbG93PSJ2aXNpYmxlIiBpZD0iZ2x5cGgxLTAiPgo8cGF0aCBzdHlsZT0ic3Ryb2tlOm5vbmU7IiBkPSJNIDAuNSAxLjc2NTYyNSBMIDAuNSAtNy4wNDY4NzUgTCA1LjUgLTcuMDQ2ODc1IEwgNS41IDEuNzY1NjI1IFogTSAxLjA2MjUgMS4yMTg3NSBMIDQuOTM3NSAxLjIxODc1IEwgNC45Mzc1IC02LjQ4NDM3NSBMIDEuMDYyNSAtNi40ODQzNzUgWiBNIDEuMDYyNSAxLjIxODc1ICIvPgo8L3N5bWJvbD4KPHN5bWJvbCBvdmVyZmxvdz0idmlzaWJsZSIgaWQ9ImdseXBoMS0xIj4KPHBhdGggc3R5bGU9InN0cm9rZTpub25lOyIgZD0iTSAxLjkyMTg3NSAtMC44MjgxMjUgTCA1LjM1OTM3NSAtMC44MjgxMjUgTCA1LjM1OTM3NSAwIEwgMC43MzQzNzUgMCBMIDAuNzM0Mzc1IC0wLjgyODEyNSBDIDEuMTA5Mzc1IC0xLjIxMDkzOCAxLjYxNzE4OCAtMS43MzQzNzUgMi4yNjU2MjUgLTIuMzkwNjI1IEMgMi45MTAxNTYgLTMuMDQ2ODc1IDMuMzE2NDA2IC0zLjQ2ODc1IDMuNDg0Mzc1IC0zLjY1NjI1IEMgMy43OTY4NzUgLTQuMDA3ODEyIDQuMDE1NjI1IC00LjMwNDY4OCA0LjE0MDYyNSAtNC41NDY4NzUgQyA0LjI2NTYyNSAtNC43OTY4NzUgNC4zMjgxMjUgLTUuMDM5MDYyIDQuMzI4MTI1IC01LjI4MTI1IEMgNC4zMjgxMjUgLTUuNjY0MDYyIDQuMTkxNDA2IC01Ljk3NjU2MiAzLjkyMTg3NSAtNi4yMTg3NSBDIDMuNjQ4NDM4IC02LjQ2ODc1IDMuMjk2ODc1IC02LjU5Mzc1IDIuODU5Mzc1IC02LjU5Mzc1IEMgMi41NDY4NzUgLTYuNTkzNzUgMi4yMTg3NSAtNi41MzUxNTYgMS44NzUgLTYuNDIxODc1IEMgMS41MzkwNjIgLTYuMzE2NDA2IDEuMTc1NzgxIC02LjE1NjI1IDAuNzgxMjUgLTUuOTM3NSBMIDAuNzgxMjUgLTYuOTM3NSBDIDEuMTc1NzgxIC03LjA5Mzc1IDEuNTQ2ODc1IC03LjIxMDkzOCAxLjg5MDYyNSAtNy4yOTY4NzUgQyAyLjIzNDM3NSAtNy4zNzg5MDYgMi41NTA3ODEgLTcuNDIxODc1IDIuODQzNzUgLTcuNDIxODc1IEMgMy41OTM3NSAtNy40MjE4NzUgNC4xOTE0MDYgLTcuMjM0Mzc1IDQuNjQwNjI1IC02Ljg1OTM3NSBDIDUuMDk3NjU2IC02LjQ4NDM3NSA1LjMyODEyNSAtNS45NzY1NjIgNS4zMjgxMjUgLTUuMzQzNzUgQyA1LjMyODEyNSAtNS4wMzkwNjIgNS4yNjk1MzEgLTQuNzUzOTA2IDUuMTU2MjUgLTQuNDg0Mzc1IEMgNS4wMzkwNjIgLTQuMjIyNjU2IDQuODM1OTM4IC0zLjkxMDE1NiA0LjU0Njg3NSAtMy41NDY4NzUgQyA0LjQ2MDkzOCAtMy40NTMxMjUgNC4yMDMxMjUgLTMuMTc1NzgxIDMuNzY1NjI1IC0yLjcxODc1IEMgMy4zMjgxMjUgLTIuMjY5NTMxIDIuNzEwOTM4IC0xLjY0MDYyNSAxLjkyMTg3NSAtMC44MjgxMjUgWiBNIDEuOTIxODc1IC0wLjgyODEyNSAiLz4KPC9zeW1ib2w+CjwvZz4KPC9kZWZzPgo8ZyBpZD0ic3VyZmFjZTYyIj4KPHJlY3QgeD0iMCIgeT0iMCIgd2lkdGg9IjMwMCIgaGVpZ2h0PSIzMDAiIHN0eWxlPSJmaWxsOnJnYigxMDAlLDEwMCUsMTAwJSk7ZmlsbC1vcGFjaXR5OjE7c3Ryb2tlOm5vbmU7Ii8+CjxnIHN0eWxlPSJmaWxsOnJnYigxMDAlLDAlLDAlKTtmaWxsLW9wYWNpdHk6MTsiPgogIDx1c2UgeGxpbms6aHJlZj0iI2dseXBoMC0xIiB4PSIxMTAuMDQyOTY5IiB5PSIxNTQuMTM4NjcyIi8+CjwvZz4KPGcgc3R5bGU9ImZpbGw6cmdiKDEwMCUsMCUsMCUpO2ZpbGwtb3BhY2l0eToxOyI+CiAgPHVzZSB4bGluazpocmVmPSIjZ2x5cGgxLTEiIHg9IjExOS4wNjY0MDYiIHk9IjE1OS4wMjE0ODQiLz4KPC9nPgo8ZyBzdHlsZT0iZmlsbDpyZ2IoMTAwJSwwJSwwJSk7ZmlsbC1vcGFjaXR5OjE7Ij4KICA8dXNlIHhsaW5rOmhyZWY9IiNnbHlwaDAtMiIgeD0iMTI1LjQyODcxMSIgeT0iMTU0LjEzODY3MiIvPgo8L2c+CjxwYXRoIHN0eWxlPSJmaWxsOm5vbmU7c3Ryb2tlLXdpZHRoOjEuMjtzdHJva2UtbGluZWNhcDpidXR0O3N0cm9rZS1saW5lam9pbjptaXRlcjtzdHJva2U6cmdiKDEwMCUsMCUsMCUpO3N0cm9rZS1vcGFjaXR5OjE7c3Ryb2tlLW1pdGVybGltaXQ6MTA7IiBkPSJNIDEzNi40NDE0MDYgMTUwIEwgMTUyLjc4NTE1NiAxNTAgIi8+CjxwYXRoIHN0eWxlPSJmaWxsOm5vbmU7c3Ryb2tlLXdpZHRoOjEuMjtzdHJva2UtbGluZWNhcDpidXR0O3N0cm9rZS1saW5lam9pbjptaXRlcjtzdHJva2U6cmdiKDAlLDAlLDAlKTtzdHJva2Utb3BhY2l0eToxO3N0cm9rZS1taXRlcmxpbWl0OjEwOyIgZD0iTSAxNTIuNzg1MTU2IDE1MCBMIDE2OS4xMjUgMTUwICIvPgo8L2c+Cjwvc3ZnPgo='
p168
sa(dp169
g2
(dp170
g4
(lp171
(dp172
g7
g8
sg9
g8
sg10
g11
sa(dp173
g7
g13
sg9
g32
sg10
g11
sa(dp174
g7
g32
sg9
g13
sg10
g11
sasg14
(lp175
(dp176
g17
g8
sg18
g13
sa(dp177
g17
g8
sg18
g32
sassg19
g20
sg21
S'15'
p178
sg22
S'CO=N'
p179
sg24
S'PD94bWwgdmVyc2lvbj0iMS4wIiBlbmNvZGluZz0iVVRGLTgiPz4KPHN2ZyB4bWxucz0iaHR0cDovL3d3dy53My5vcmcvMjAwMC9zdmciIHhtbG5zOnhsaW5rPSJodHRwOi8vd3d3LnczLm9yZy8xOTk5L3hsaW5rIiB3aWR0aD0iMzAwcHQiIGhlaWdodD0iMzAwcHQiIHZpZXdCb3g9IjAgMCAzMDAgMzAwIiB2ZXJzaW9uPSIxLjEiPgo8ZGVmcz4KPGc+CjxzeW1ib2wgb3ZlcmZsb3c9InZpc2libGUiIGlkPSJnbHlwaDAtMCI+CjxwYXRoIHN0eWxlPSJzdHJva2U6bm9uZTsiIGQ9Ik0gMC41OTM3NSAyLjEyNSBMIDAuNTkzNzUgLTguNDY4NzUgTCA2LjU5Mzc1IC04LjQ2ODc1IEwgNi41OTM3NSAyLjEyNSBaIE0gMS4yNjU2MjUgMS40NTMxMjUgTCA1LjkzNzUgMS40NTMxMjUgTCA1LjkzNzUgLTcuNzgxMjUgTCAxLjI2NTYyNSAtNy43ODEyNSBaIE0gMS4yNjU2MjUgMS40NTMxMjUgIi8+Cjwvc3ltYm9sPgo8c3ltYm9sIG92ZXJmbG93PSJ2aXNpYmxlIiBpZD0iZ2x5cGgwLTEiPgo8cGF0aCBzdHlsZT0ic3Ryb2tlOm5vbmU7IiBkPSJNIDQuNzM0Mzc1IC03Ljk1MzEyNSBDIDMuODY3MTg4IC03Ljk1MzEyNSAzLjE3OTY4OCAtNy42Mjg5MDYgMi42NzE4NzUgLTYuOTg0Mzc1IEMgMi4xNzE4NzUgLTYuMzQ3NjU2IDEuOTIxODc1IC01LjQ3MjY1NiAxLjkyMTg3NSAtNC4zNTkzNzUgQyAxLjkyMTg3NSAtMy4yNjU2MjUgMi4xNzE4NzUgLTIuMzk0NTMxIDIuNjcxODc1IC0xLjc1IEMgMy4xNzk2ODggLTEuMTEzMjgxIDMuODY3MTg4IC0wLjc5Njg3NSA0LjczNDM3NSAtMC43OTY4NzUgQyA1LjU4NTkzOCAtMC43OTY4NzUgNi4yNjU2MjUgLTEuMTEzMjgxIDYuNzY1NjI1IC0xLjc1IEMgNy4yNzM0MzggLTIuMzk0NTMxIDcuNTMxMjUgLTMuMjY1NjI1IDcuNTMxMjUgLTQuMzU5Mzc1IEMgNy41MzEyNSAtNS40NzI2NTYgNy4yNzM0MzggLTYuMzQ3NjU2IDYuNzY1NjI1IC02Ljk4NDM3NSBDIDYuMjY1NjI1IC03LjYyODkwNiA1LjU4NTkzOCAtNy45NTMxMjUgNC43MzQzNzUgLTcuOTUzMTI1IFogTSA0LjczNDM3NSAtOC45MDYyNSBDIDUuOTUzMTI1IC04LjkwNjI1IDYuOTI1NzgxIC04LjQ5MjE4OCA3LjY1NjI1IC03LjY3MTg3NSBDIDguMzk0NTMxIC02Ljg0NzY1NiA4Ljc2NTYyNSAtNS43NDIxODggOC43NjU2MjUgLTQuMzU5Mzc1IEMgOC43NjU2MjUgLTIuOTg0Mzc1IDguMzk0NTMxIC0xLjg4MjgxMiA3LjY1NjI1IC0xLjA2MjUgQyA2LjkyNTc4MSAtMC4yMzgyODEgNS45NTMxMjUgMC4xNzE4NzUgNC43MzQzNzUgMC4xNzE4NzUgQyAzLjUwMzkwNiAwLjE3MTg3NSAyLjUxOTUzMSAtMC4yMzgyODEgMS43ODEyNSAtMS4wNjI1IEMgMS4wMzkwNjIgLTEuODgyODEyIDAuNjcxODc1IC0yLjk4NDM3NSAwLjY3MTg3NSAtNC4zNTkzNzUgQyAwLjY3MTg3NSAtNS43NDIxODggMS4wMzkwNjIgLTYuODQ3NjU2IDEuNzgxMjUgLTcuNjcxODc1IEMgMi41MTk1MzEgLTguNDkyMTg4IDMuNTAzOTA2IC04LjkwNjI1IDQuNzM0Mzc1IC04LjkwNjI1IFogTSA0LjczNDM3NSAtOC45MDYyNSAiLz4KPC9zeW1ib2w+CjxzeW1ib2wgb3ZlcmZsb3c9InZpc2libGUiIGlkPSJnbHlwaDAtMiI+CjxwYXRoIHN0eWxlPSJzdHJva2U6bm9uZTsiIGQ9Ik0gMS4xNzE4NzUgLTguNzUgTCAyLjM1OTM3NSAtOC43NSBMIDIuMzU5Mzc1IC01LjE1NjI1IEwgNi42NTYyNSAtNS4xNTYyNSBMIDYuNjU2MjUgLTguNzUgTCA3Ljg0Mzc1IC04Ljc1IEwgNy44NDM3NSAwIEwgNi42NTYyNSAwIEwgNi42NTYyNSAtNC4xNzE4NzUgTCAyLjM1OTM3NSAtNC4xNzE4NzUgTCAyLjM1OTM3NSAwIEwgMS4xNzE4NzUgMCBaIE0gMS4xNzE4NzUgLTguNzUgIi8+Cjwvc3ltYm9sPgo8c3ltYm9sIG92ZXJmbG93PSJ2aXNpYmxlIiBpZD0iZ2x5cGgwLTMiPgo8cGF0aCBzdHlsZT0ic3Ryb2tlOm5vbmU7IiBkPSJNIDEuMTcxODc1IC04Ljc1IEwgMi43NjU2MjUgLTguNzUgTCA2LjY1NjI1IC0xLjQzNzUgTCA2LjY1NjI1IC04Ljc1IEwgNy43OTY4NzUgLTguNzUgTCA3Ljc5Njg3NSAwIEwgNi4yMDMxMjUgMCBMIDIuMzI4MTI1IC03LjMxMjUgTCAyLjMyODEyNSAwIEwgMS4xNzE4NzUgMCBaIE0gMS4xNzE4NzUgLTguNzUgIi8+Cjwvc3ltYm9sPgo8c3ltYm9sIG92ZXJmbG93PSJ2aXNpYmxlIiBpZD0iZ2x5cGgxLTAiPgo8cGF0aCBzdHlsZT0ic3Ryb2tlOm5vbmU7IiBkPSJNIDAuNSAxLjc2NTYyNSBMIDAuNSAtNy4wNDY4NzUgTCA1LjUgLTcuMDQ2ODc1IEwgNS41IDEuNzY1NjI1IFogTSAxLjA2MjUgMS4yMTg3NSBMIDQuOTM3NSAxLjIxODc1IEwgNC45Mzc1IC02LjQ4NDM3NSBMIDEuMDYyNSAtNi40ODQzNzUgWiBNIDEuMDYyNSAxLjIxODc1ICIvPgo8L3N5bWJvbD4KPHN5bWJvbCBvdmVyZmxvdz0idmlzaWJsZSIgaWQ9ImdseXBoMS0xIj4KPHBhdGggc3R5bGU9InN0cm9rZTpub25lOyIgZD0iTSAxLjkyMTg3NSAtMC44MjgxMjUgTCA1LjM1OTM3NSAtMC44MjgxMjUgTCA1LjM1OTM3NSAwIEwgMC43MzQzNzUgMCBMIDAuNzM0Mzc1IC0wLjgyODEyNSBDIDEuMTA5Mzc1IC0xLjIxMDkzOCAxLjYxNzE4OCAtMS43MzQzNzUgMi4yNjU2MjUgLTIuMzkwNjI1IEMgMi45MTAxNTYgLTMuMDQ2ODc1IDMuMzE2NDA2IC0zLjQ2ODc1IDMuNDg0Mzc1IC0zLjY1NjI1IEMgMy43OTY4NzUgLTQuMDA3ODEyIDQuMDE1NjI1IC00LjMwNDY4OCA0LjE0MDYyNSAtNC41NDY4NzUgQyA0LjI2NTYyNSAtNC43OTY4NzUgNC4zMjgxMjUgLTUuMDM5MDYyIDQuMzI4MTI1IC01LjI4MTI1IEMgNC4zMjgxMjUgLTUuNjY0MDYyIDQuMTkxNDA2IC01Ljk3NjU2MiAzLjkyMTg3NSAtNi4yMTg3NSBDIDMuNjQ4NDM4IC02LjQ2ODc1IDMuMjk2ODc1IC02LjU5Mzc1IDIuODU5Mzc1IC02LjU5Mzc1IEMgMi41NDY4NzUgLTYuNTkzNzUgMi4yMTg3NSAtNi41MzUxNTYgMS44NzUgLTYuNDIxODc1IEMgMS41MzkwNjIgLTYuMzE2NDA2IDEuMTc1NzgxIC02LjE1NjI1IDAuNzgxMjUgLTUuOTM3NSBMIDAuNzgxMjUgLTYuOTM3NSBDIDEuMTc1NzgxIC03LjA5Mzc1IDEuNTQ2ODc1IC03LjIxMDkzOCAxLjg5MDYyNSAtNy4yOTY4NzUgQyAyLjIzNDM3NSAtNy4zNzg5MDYgMi41NTA3ODEgLTcuNDIxODc1IDIuODQzNzUgLTcuNDIxODc1IEMgMy41OTM3NSAtNy40MjE4NzUgNC4xOTE0MDYgLTcuMjM0Mzc1IDQuNjQwNjI1IC02Ljg1OTM3NSBDIDUuMDk3NjU2IC02LjQ4NDM3NSA1LjMyODEyNSAtNS45NzY1NjIgNS4zMjgxMjUgLTUuMzQzNzUgQyA1LjMyODEyNSAtNS4wMzkwNjIgNS4yNjk1MzEgLTQuNzUzOTA2IDUuMTU2MjUgLTQuNDg0Mzc1IEMgNS4wMzkwNjIgLTQuMjIyNjU2IDQuODM1OTM4IC0zLjkxMDE1NiA0LjU0Njg3NSAtMy41NDY4NzUgQyA0LjQ2MDkzOCAtMy40NTMxMjUgNC4yMDMxMjUgLTMuMTc1NzgxIDMuNzY1NjI1IC0yLjcxODc1IEMgMy4zMjgxMjUgLTIuMjY5NTMxIDIuNzEwOTM4IC0xLjY0MDYyNSAxLjkyMTg3NSAtMC44MjgxMjUgWiBNIDEuOTIxODc1IC0wLjgyODEyNSAiLz4KPC9zeW1ib2w+CjxzeW1ib2wgb3ZlcmZsb3c9InZpc2libGUiIGlkPSJnbHlwaDEtMiI+CjxwYXRoIHN0eWxlPSJzdHJva2U6bm9uZTsiIGQ9Ik0gNC4wNjI1IC0zLjkzNzUgQyA0LjUzMTI1IC0zLjgzMjAzMSA0Ljg5NDUzMSAtMy42MTcxODggNS4xNTYyNSAtMy4yOTY4NzUgQyA1LjQyNTc4MSAtMi45ODQzNzUgNS41NjI1IC0yLjU5Mzc1IDUuNTYyNSAtMi4xMjUgQyA1LjU2MjUgLTEuNDA2MjUgNS4zMTI1IC0wLjg0NzY1NiA0LjgxMjUgLTAuNDUzMTI1IEMgNC4zMjAzMTIgLTAuMDU0Njg3NSAzLjYxNzE4OCAwLjE0MDYyNSAyLjcwMzEyNSAwLjE0MDYyNSBDIDIuMzk4NDM4IDAuMTQwNjI1IDIuMDg1OTM4IDAuMTA5Mzc1IDEuNzY1NjI1IDAuMDQ2ODc1IEMgMS40NDE0MDYgLTAuMDE1NjI1IDEuMTA5Mzc1IC0wLjEwMTU2MiAwLjc2NTYyNSAtMC4yMTg3NSBMIDAuNzY1NjI1IC0xLjE3MTg3NSBDIDEuMDM1MTU2IC0xLjAxNTYyNSAxLjMzMjAzMSAtMC44OTQ1MzEgMS42NTYyNSAtMC44MTI1IEMgMS45ODgyODEgLTAuNzI2NTYyIDIuMzMyMDMxIC0wLjY4NzUgMi42ODc1IC0wLjY4NzUgQyAzLjMwMDc4MSAtMC42ODc1IDMuNzY5NTMxIC0wLjgwNDY4OCA0LjA5Mzc1IC0xLjA0Njg3NSBDIDQuNDE0MDYyIC0xLjI5Njg3NSA0LjU3ODEyNSAtMS42NTYyNSA0LjU3ODEyNSAtMi4xMjUgQyA0LjU3ODEyNSAtMi41NTA3ODEgNC40MjU3ODEgLTIuODgyODEyIDQuMTI1IC0zLjEyNSBDIDMuODIwMzEyIC0zLjM2MzI4MSAzLjQwNjI1IC0zLjQ4NDM3NSAyLjg3NSAtMy40ODQzNzUgTCAyLjAxNTYyNSAtMy40ODQzNzUgTCAyLjAxNTYyNSAtNC4yOTY4NzUgTCAyLjkwNjI1IC00LjI5Njg3NSBDIDMuMzk0NTMxIC00LjI5Njg3NSAzLjc2NTYyNSAtNC4zOTQ1MzEgNC4wMTU2MjUgLTQuNTkzNzUgQyA0LjI3MzQzOCAtNC43ODkwNjIgNC40MDYyNSAtNS4wNzAzMTIgNC40MDYyNSAtNS40Mzc1IEMgNC40MDYyNSAtNS44MDA3ODEgNC4yNjk1MzEgLTYuMDgyMDMxIDQgLTYuMjgxMjUgQyAzLjczODI4MSAtNi40ODgyODEgMy4zNjMyODEgLTYuNTkzNzUgMi44NzUgLTYuNTkzNzUgQyAyLjYwMTU2MiAtNi41OTM3NSAyLjMxMjUgLTYuNTYyNSAyIC02LjUgQyAxLjY4NzUgLTYuNDQ1MzEyIDEuMzQ3NjU2IC02LjM1OTM3NSAwLjk4NDM3NSAtNi4yMzQzNzUgTCAwLjk4NDM3NSAtNy4xMDkzNzUgQyAxLjM1OTM3NSAtNy4yMTA5MzggMS43MDcwMzEgLTcuMjg5MDYyIDIuMDMxMjUgLTcuMzQzNzUgQyAyLjM2MzI4MSAtNy4zOTQ1MzEgMi42NzE4NzUgLTcuNDIxODc1IDIuOTUzMTI1IC03LjQyMTg3NSBDIDMuNzAzMTI1IC03LjQyMTg3NSA0LjI5Njg3NSAtNy4yNSA0LjczNDM3NSAtNi45MDYyNSBDIDUuMTcxODc1IC02LjU3MDMxMiA1LjM5MDYyNSAtNi4xMTMyODEgNS4zOTA2MjUgLTUuNTMxMjUgQyA1LjM5MDYyNSAtNS4xMjUgNS4yNzM0MzggLTQuNzgxMjUgNS4wNDY4NzUgLTQuNSBDIDQuODE2NDA2IC00LjIyNjU2MiA0LjQ4ODI4MSAtNC4wMzkwNjIgNC4wNjI1IC0zLjkzNzUgWiBNIDQuMDYyNSAtMy45Mzc1ICIvPgo8L3N5bWJvbD4KPC9nPgo8L2RlZnM+CjxnIGlkPSJzdXJmYWNlNjYiPgo8cmVjdCB4PSIwIiB5PSIwIiB3aWR0aD0iMzAwIiBoZWlnaHQ9IjMwMCIgc3R5bGU9ImZpbGw6cmdiKDEwMCUsMTAwJSwxMDAlKTtmaWxsLW9wYWNpdHk6MTtzdHJva2U6bm9uZTsiLz4KPGcgc3R5bGU9ImZpbGw6cmdiKDEwMCUsMCUsMCUpO2ZpbGwtb3BhY2l0eToxOyI+CiAgPHVzZSB4bGluazpocmVmPSIjZ2x5cGgwLTEiIHg9IjE0NS44MzIwMzEiIHk9IjE2My43MDExNzIiLz4KICA8dXNlIHhsaW5rOmhyZWY9IiNnbHlwaDAtMiIgeD0iMTU1LjI3NzM0NCIgeT0iMTYzLjcwMTE3MiIvPgo8L2c+CjxnIHN0eWxlPSJmaWxsOnJnYigxMDAlLDAlLDAlKTtmaWxsLW9wYWNpdHk6MTsiPgogIDx1c2UgeGxpbms6aHJlZj0iI2dseXBoMS0xIiB4PSIxNjQuMzAwNzgxIiB5PSIxNjguNTgzOTg0Ii8+CjwvZz4KPGcgc3R5bGU9ImZpbGw6cmdiKDAlLDAlLDEwMCUpO2ZpbGwtb3BhY2l0eToxOyI+CiAgPHVzZSB4bGluazpocmVmPSIjZ2x5cGgwLTIiIHg9Ijk2LjA0Mjk2OSIgeT0iMTQ0LjU3NjE3MiIvPgo8L2c+CjxnIHN0eWxlPSJmaWxsOnJnYigwJSwwJSwxMDAlKTtmaWxsLW9wYWNpdHk6MTsiPgogIDx1c2UgeGxpbms6aHJlZj0iI2dseXBoMS0yIiB4PSIxMDUuMDY2NDA2IiB5PSIxNDkuNDU4OTg0Ii8+CjwvZz4KPGcgc3R5bGU9ImZpbGw6cmdiKDAlLDAlLDEwMCUpO2ZpbGwtb3BhY2l0eToxOyI+CiAgPHVzZSB4bGluazpocmVmPSIjZ2x5cGgwLTMiIHg9IjExMS40Mjg3MTEiIHk9IjE0NC41NzYxNzIiLz4KPC9nPgo8cGF0aCBzdHlsZT0iZmlsbDpub25lO3N0cm9rZS13aWR0aDoxLjI7c3Ryb2tlLWxpbmVjYXA6YnV0dDtzdHJva2UtbGluZWpvaW46bWl0ZXI7c3Ryb2tlOnJnYigxMDAlLDAlLDAlKTtzdHJva2Utb3BhY2l0eToxO3N0cm9rZS1taXRlcmxpbWl0OjEwOyIgZD0iTSAxNjUuNzYxNzE5IDE1MC40NjA5MzggTCAxNzQuNDQ1MzEyIDE0NS40NDkyMTkgIi8+CjxwYXRoIHN0eWxlPSJmaWxsOm5vbmU7c3Ryb2tlLXdpZHRoOjEuMjtzdHJva2UtbGluZWNhcDpidXR0O3N0cm9rZS1saW5lam9pbjptaXRlcjtzdHJva2U6cmdiKDAlLDAlLDAlKTtzdHJva2Utb3BhY2l0eToxO3N0cm9rZS1taXRlcmxpbWl0OjEwOyIgZD0iTSAxNzQuNDQ1MzEyIDE0NS40NDkyMTkgTCAxODMuMTI1IDE0MC40Mzc1ICIvPgo8cGF0aCBzdHlsZT0iZmlsbDpub25lO3N0cm9rZS13aWR0aDoxLjI7c3Ryb2tlLWxpbmVjYXA6YnV0dDtzdHJva2UtbGluZWpvaW46bWl0ZXI7c3Ryb2tlOnJnYigxMDAlLDAlLDAlKTtzdHJva2Utb3BhY2l0eToxO3N0cm9rZS1taXRlcmxpbWl0OjEwOyIgZD0iTSAxNDYuMzA4NTk0IDE1My4xMDE1NjIgTCAxMzUuMzEyNSAxNDYuNzUzOTA2ICIvPgo8cGF0aCBzdHlsZT0iZmlsbDpub25lO3N0cm9rZS13aWR0aDoxLjI7c3Ryb2tlLWxpbmVjYXA6YnV0dDtzdHJva2UtbGluZWpvaW46bWl0ZXI7c3Ryb2tlOnJnYigwJSwwJSwxMDAlKTtzdHJva2Utb3BhY2l0eToxO3N0cm9rZS1taXRlcmxpbWl0OjEwOyIgZD0iTSAxMzUuMzEyNSAxNDYuNzUzOTA2IEwgMTI0LjMxNjQwNiAxNDAuNDAyMzQ0ICIvPgo8cGF0aCBzdHlsZT0iZmlsbDpub25lO3N0cm9rZS13aWR0aDoxLjI7c3Ryb2tlLWxpbmVjYXA6YnV0dDtzdHJva2UtbGluZWpvaW46bWl0ZXI7c3Ryb2tlOnJnYigxMDAlLDAlLDAlKTtzdHJva2Utb3BhY2l0eToxO3N0cm9rZS1taXRlcmxpbWl0OjEwOyIgZD0iTSAxNDIuNTU4NTk0IDE1OS41OTc2NTYgTCAxMzEuNTYyNSAxNTMuMjQ2MDk0ICIvPgo8cGF0aCBzdHlsZT0iZmlsbDpub25lO3N0cm9rZS13aWR0aDoxLjI7c3Ryb2tlLWxpbmVjYXA6YnV0dDtzdHJva2UtbGluZWpvaW46bWl0ZXI7c3Ryb2tlOnJnYigwJSwwJSwxMDAlKTtzdHJva2Utb3BhY2l0eToxO3N0cm9rZS1taXRlcmxpbWl0OjEwOyIgZD0iTSAxMzEuNTYyNSAxNTMuMjQ2MDk0IEwgMTIwLjU2NjQwNiAxNDYuODk4NDM4ICIvPgo8L2c+Cjwvc3ZnPgo='
p180
sa(dp181
g2
(dp182
g4
(lp183
(dp184
g7
g8
sg9
g32
sg10
g11
sa(dp185
g7
g13
sg9
g84
sg10
g11
sasg14
(lp186
(dp187
g17
g8
sg18
g13
sassg19
g20
sg21
S'16'
p188
sg22
S'C=[Na]'
p189
sg24
S'PD94bWwgdmVyc2lvbj0iMS4wIiBlbmNvZGluZz0iVVRGLTgiPz4KPHN2ZyB4bWxucz0iaHR0cDovL3d3dy53My5vcmcvMjAwMC9zdmciIHhtbG5zOnhsaW5rPSJodHRwOi8vd3d3LnczLm9yZy8xOTk5L3hsaW5rIiB3aWR0aD0iMzAwcHQiIGhlaWdodD0iMzAwcHQiIHZpZXdCb3g9IjAgMCAzMDAgMzAwIiB2ZXJzaW9uPSIxLjEiPgo8ZGVmcz4KPGc+CjxzeW1ib2wgb3ZlcmZsb3c9InZpc2libGUiIGlkPSJnbHlwaDAtMCI+CjxwYXRoIHN0eWxlPSJzdHJva2U6bm9uZTsiIGQ9Ik0gMC41OTM3NSAyLjEyNSBMIDAuNTkzNzUgLTguNDY4NzUgTCA2LjU5Mzc1IC04LjQ2ODc1IEwgNi41OTM3NSAyLjEyNSBaIE0gMS4yNjU2MjUgMS40NTMxMjUgTCA1LjkzNzUgMS40NTMxMjUgTCA1LjkzNzUgLTcuNzgxMjUgTCAxLjI2NTYyNSAtNy43ODEyNSBaIE0gMS4yNjU2MjUgMS40NTMxMjUgIi8+Cjwvc3ltYm9sPgo8c3ltYm9sIG92ZXJmbG93PSJ2aXNpYmxlIiBpZD0iZ2x5cGgwLTEiPgo8cGF0aCBzdHlsZT0ic3Ryb2tlOm5vbmU7IiBkPSJNIDEuMTcxODc1IC04Ljc1IEwgMi43NjU2MjUgLTguNzUgTCA2LjY1NjI1IC0xLjQzNzUgTCA2LjY1NjI1IC04Ljc1IEwgNy43OTY4NzUgLTguNzUgTCA3Ljc5Njg3NSAwIEwgNi4yMDMxMjUgMCBMIDIuMzI4MTI1IC03LjMxMjUgTCAyLjMyODEyNSAwIEwgMS4xNzE4NzUgMCBaIE0gMS4xNzE4NzUgLTguNzUgIi8+Cjwvc3ltYm9sPgo8c3ltYm9sIG92ZXJmbG93PSJ2aXNpYmxlIiBpZD0iZ2x5cGgwLTIiPgo8cGF0aCBzdHlsZT0ic3Ryb2tlOm5vbmU7IiBkPSJNIDQuMTA5Mzc1IC0zLjI5Njg3NSBDIDMuMjQyMTg4IC0zLjI5Njg3NSAyLjY0MDYyNSAtMy4xOTUzMTIgMi4yOTY4NzUgLTMgQyAxLjk2MDkzOCAtMi44MDA3ODEgMS43OTY4NzUgLTIuNDYwOTM4IDEuNzk2ODc1IC0xLjk4NDM3NSBDIDEuNzk2ODc1IC0xLjU5NzY1NiAxLjkyMTg3NSAtMS4yODkwNjIgMi4xNzE4NzUgLTEuMDYyNSBDIDIuNDI5Njg4IC0wLjg0Mzc1IDIuNzczNDM4IC0wLjczNDM3NSAzLjIwMzEyNSAtMC43MzQzNzUgQyAzLjgwNDY4OCAtMC43MzQzNzUgNC4yODUxNTYgLTAuOTQxNDA2IDQuNjQwNjI1IC0xLjM1OTM3NSBDIDUuMDAzOTA2IC0xLjc4NTE1NiA1LjE4NzUgLTIuMzUxNTYyIDUuMTg3NSAtMy4wNjI1IEwgNS4xODc1IC0zLjI5Njg3NSBaIE0gNi4yNjU2MjUgLTMuNzUgTCA2LjI2NTYyNSAwIEwgNS4xODc1IDAgTCA1LjE4NzUgLTEgQyA0LjkzNzUgLTAuNjAxNTYyIDQuNjI4OTA2IC0wLjMwNDY4OCA0LjI2NTYyNSAtMC4xMDkzNzUgQyAzLjg5ODQzOCAwLjA3ODEyNSAzLjQ1MzEyNSAwLjE3MTg3NSAyLjkyMTg3NSAwLjE3MTg3NSBDIDIuMjQyMTg4IDAuMTcxODc1IDEuNzA3MDMxIC0wLjAxNTYyNSAxLjMxMjUgLTAuMzkwNjI1IEMgMC45MTQwNjIgLTAuNzczNDM4IDAuNzE4NzUgLTEuMjgxMjUgMC43MTg3NSAtMS45MDYyNSBDIDAuNzE4NzUgLTIuNjQ0NTMxIDAuOTYwOTM4IC0zLjIwMzEyNSAxLjQ1MzEyNSAtMy41NzgxMjUgQyAxLjk1MzEyNSAtMy45NTMxMjUgMi42OTE0MDYgLTQuMTQwNjI1IDMuNjcxODc1IC00LjE0MDYyNSBMIDUuMTg3NSAtNC4xNDA2MjUgTCA1LjE4NzUgLTQuMjUgQyA1LjE4NzUgLTQuNzUgNS4wMTk1MzEgLTUuMTMyODEyIDQuNjg3NSAtNS40MDYyNSBDIDQuMzYzMjgxIC01LjY3NTc4MSAzLjkxMDE1NiAtNS44MTI1IDMuMzI4MTI1IC01LjgxMjUgQyAyLjk1MzEyNSAtNS44MTI1IDIuNTgyMDMxIC01Ljc2NTYyNSAyLjIxODc1IC01LjY3MTg3NSBDIDEuODYzMjgxIC01LjU3ODEyNSAxLjUyMzQzOCAtNS40NDE0MDYgMS4yMDMxMjUgLTUuMjY1NjI1IEwgMS4yMDMxMjUgLTYuMjY1NjI1IEMgMS41OTc2NTYgLTYuNDIxODc1IDEuOTc2NTYyIC02LjUzNTE1NiAyLjM0Mzc1IC02LjYwOTM3NSBDIDIuNzE4NzUgLTYuNjc5Njg4IDMuMDgyMDMxIC02LjcxODc1IDMuNDM3NSAtNi43MTg3NSBDIDQuMzgyODEyIC02LjcxODc1IDUuMDkzNzUgLTYuNDcyNjU2IDUuNTYyNSAtNS45ODQzNzUgQyA2LjAzMTI1IC01LjQ5MjE4OCA2LjI2NTYyNSAtNC43NSA2LjI2NTYyNSAtMy43NSBaIE0gNi4yNjU2MjUgLTMuNzUgIi8+Cjwvc3ltYm9sPgo8c3ltYm9sIG92ZXJmbG93PSJ2aXNpYmxlIiBpZD0iZ2x5cGgwLTMiPgo8cGF0aCBzdHlsZT0ic3Ryb2tlOm5vbmU7IiBkPSJNIDEuMTcxODc1IC04Ljc1IEwgMi4zNTkzNzUgLTguNzUgTCAyLjM1OTM3NSAtNS4xNTYyNSBMIDYuNjU2MjUgLTUuMTU2MjUgTCA2LjY1NjI1IC04Ljc1IEwgNy44NDM3NSAtOC43NSBMIDcuODQzNzUgMCBMIDYuNjU2MjUgMCBMIDYuNjU2MjUgLTQuMTcxODc1IEwgMi4zNTkzNzUgLTQuMTcxODc1IEwgMi4zNTkzNzUgMCBMIDEuMTcxODc1IDAgWiBNIDEuMTcxODc1IC04Ljc1ICIvPgo8L3N5bWJvbD4KPC9nPgo8L2RlZnM+CjxnIGlkPSJzdXJmYWNlNzAiPgo8cmVjdCB4PSIwIiB5PSIwIiB3aWR0aD0iMzAwIiBoZWlnaHQ9IjMwMCIgc3R5bGU9ImZpbGw6cmdiKDEwMCUsMTAwJSwxMDAlKTtmaWxsLW9wYWNpdHk6MTtzdHJva2U6bm9uZTsiLz4KPGcgc3R5bGU9ImZpbGw6cmdiKDAlLDAlLDAlKTtmaWxsLW9wYWNpdHk6MTsiPgogIDx1c2UgeGxpbms6aHJlZj0iI2dseXBoMC0xIiB4PSIxNjAuNDU3MDMxIiB5PSIxNTQuMTM4NjcyIi8+CiAgPHVzZSB4bGluazpocmVmPSIjZ2x5cGgwLTIiIHg9IjE2OS40MzM1OTQiIHk9IjE1NC4xMzg2NzIiLz4KICA8dXNlIHhsaW5rOmhyZWY9IiNnbHlwaDAtMyIgeD0iMTc2Ljc4NzEwOSIgeT0iMTU0LjEzODY3MiIvPgo8L2c+CjxwYXRoIHN0eWxlPSJmaWxsOm5vbmU7c3Ryb2tlLXdpZHRoOjEuMjtzdHJva2UtbGluZWNhcDpidXR0O3N0cm9rZS1saW5lam9pbjptaXRlcjtzdHJva2U6cmdiKDAlLDAlLDAlKTtzdHJva2Utb3BhY2l0eToxO3N0cm9rZS1taXRlcmxpbWl0OjEwOyIgZD0iTSAxMzAuODc1IDE1My43NSBMIDE1OS4wNTg1OTQgMTUzLjc1ICIvPgo8cGF0aCBzdHlsZT0iZmlsbDpub25lO3N0cm9rZS13aWR0aDoxLjI7c3Ryb2tlLWxpbmVjYXA6YnV0dDtzdHJva2UtbGluZWpvaW46bWl0ZXI7c3Ryb2tlOnJnYigwJSwwJSwwJSk7c3Ryb2tlLW9wYWNpdHk6MTtzdHJva2UtbWl0ZXJsaW1pdDoxMDsiIGQ9Ik0gMTMwLjg3NSAxNDYuMjUgTCAxNTkuMDU4NTk0IDE0Ni4yNSAiLz4KPC9nPgo8L3N2Zz4K'
p190
sa(dp191
g2
(dp192
g4
(lp193
(dp194
g7
g8
sg9
g32
sg10
g11
sa(dp195
g7
g13
sg9
g32
sg10
g11
sasg14
(lp196
(dp197
g17
g8
sg18
g13
sassg19
g20
sg21
S'17'
p198
sg22
S'CC'
p199
sg24
S'PD94bWwgdmVyc2lvbj0iMS4wIiBlbmNvZGluZz0iVVRGLTgiPz4KPHN2ZyB4bWxucz0iaHR0cDovL3d3dy53My5vcmcvMjAwMC9zdmciIHhtbG5zOnhsaW5rPSJodHRwOi8vd3d3LnczLm9yZy8xOTk5L3hsaW5rIiB3aWR0aD0iMzAwcHQiIGhlaWdodD0iMzAwcHQiIHZpZXdCb3g9IjAgMCAzMDAgMzAwIiB2ZXJzaW9uPSIxLjEiPgo8ZyBpZD0ic3VyZmFjZTc0Ij4KPHJlY3QgeD0iMCIgeT0iMCIgd2lkdGg9IjMwMCIgaGVpZ2h0PSIzMDAiIHN0eWxlPSJmaWxsOnJnYigxMDAlLDEwMCUsMTAwJSk7ZmlsbC1vcGFjaXR5OjE7c3Ryb2tlOm5vbmU7Ii8+CjxwYXRoIHN0eWxlPSJmaWxsOm5vbmU7c3Ryb2tlLXdpZHRoOjEuMjtzdHJva2UtbGluZWNhcDpidXR0O3N0cm9rZS1saW5lam9pbjptaXRlcjtzdHJva2U6cmdiKDAlLDAlLDAlKTtzdHJva2Utb3BhY2l0eToxO3N0cm9rZS1taXRlcmxpbWl0OjEwOyIgZD0iTSAxMzAuODc1IDE1MCBMIDE2OS4xMjUgMTUwICIvPgo8L2c+Cjwvc3ZnPgo='
p200
sa(dp201
g2
(dp202
g4
(lp203
(dp204
g7
g8
sg9
g32
sg10
g11
sa(dp205
g7
g13
sg9
g32
sg10
g11
sa(dp206
g7
g32
sg9
g84
sg10
g11
sasg14
(lp207
(dp208
g17
g8
sg18
g13
sa(dp209
g17
g13
sg18
g32
sassg19
g20
sg21
S'18'
p210
sg22
S'CC=[Na]'
p211
sg24
S'PD94bWwgdmVyc2lvbj0iMS4wIiBlbmNvZGluZz0iVVRGLTgiPz4KPHN2ZyB4bWxucz0iaHR0cDovL3d3dy53My5vcmcvMjAwMC9zdmciIHhtbG5zOnhsaW5rPSJodHRwOi8vd3d3LnczLm9yZy8xOTk5L3hsaW5rIiB3aWR0aD0iMzAwcHQiIGhlaWdodD0iMzAwcHQiIHZpZXdCb3g9IjAgMCAzMDAgMzAwIiB2ZXJzaW9uPSIxLjEiPgo8ZGVmcz4KPGc+CjxzeW1ib2wgb3ZlcmZsb3c9InZpc2libGUiIGlkPSJnbHlwaDAtMCI+CjxwYXRoIHN0eWxlPSJzdHJva2U6bm9uZTsiIGQ9Ik0gMC41OTM3NSAyLjEyNSBMIDAuNTkzNzUgLTguNDY4NzUgTCA2LjU5Mzc1IC04LjQ2ODc1IEwgNi41OTM3NSAyLjEyNSBaIE0gMS4yNjU2MjUgMS40NTMxMjUgTCA1LjkzNzUgMS40NTMxMjUgTCA1LjkzNzUgLTcuNzgxMjUgTCAxLjI2NTYyNSAtNy43ODEyNSBaIE0gMS4yNjU2MjUgMS40NTMxMjUgIi8+Cjwvc3ltYm9sPgo8c3ltYm9sIG92ZXJmbG93PSJ2aXNpYmxlIiBpZD0iZ2x5cGgwLTEiPgo8cGF0aCBzdHlsZT0ic3Ryb2tlOm5vbmU7IiBkPSJNIDEuMTcxODc1IC04Ljc1IEwgMi43NjU2MjUgLTguNzUgTCA2LjY1NjI1IC0xLjQzNzUgTCA2LjY1NjI1IC04Ljc1IEwgNy43OTY4NzUgLTguNzUgTCA3Ljc5Njg3NSAwIEwgNi4yMDMxMjUgMCBMIDIuMzI4MTI1IC03LjMxMjUgTCAyLjMyODEyNSAwIEwgMS4xNzE4NzUgMCBaIE0gMS4xNzE4NzUgLTguNzUgIi8+Cjwvc3ltYm9sPgo8c3ltYm9sIG92ZXJmbG93PSJ2aXNpYmxlIiBpZD0iZ2x5cGgwLTIiPgo8cGF0aCBzdHlsZT0ic3Ryb2tlOm5vbmU7IiBkPSJNIDQuMTA5Mzc1IC0zLjI5Njg3NSBDIDMuMjQyMTg4IC0zLjI5Njg3NSAyLjY0MDYyNSAtMy4xOTUzMTIgMi4yOTY4NzUgLTMgQyAxLjk2MDkzOCAtMi44MDA3ODEgMS43OTY4NzUgLTIuNDYwOTM4IDEuNzk2ODc1IC0xLjk4NDM3NSBDIDEuNzk2ODc1IC0xLjU5NzY1NiAxLjkyMTg3NSAtMS4yODkwNjIgMi4xNzE4NzUgLTEuMDYyNSBDIDIuNDI5Njg4IC0wLjg0Mzc1IDIuNzczNDM4IC0wLjczNDM3NSAzLjIwMzEyNSAtMC43MzQzNzUgQyAzLjgwNDY4OCAtMC43MzQzNzUgNC4yODUxNTYgLTAuOTQxNDA2IDQuNjQwNjI1IC0xLjM1OTM3NSBDIDUuMDAzOTA2IC0xLjc4NTE1NiA1LjE4NzUgLTIuMzUxNTYyIDUuMTg3NSAtMy4wNjI1IEwgNS4xODc1IC0zLjI5Njg3NSBaIE0gNi4yNjU2MjUgLTMuNzUgTCA2LjI2NTYyNSAwIEwgNS4xODc1IDAgTCA1LjE4NzUgLTEgQyA0LjkzNzUgLTAuNjAxNTYyIDQuNjI4OTA2IC0wLjMwNDY4OCA0LjI2NTYyNSAtMC4xMDkzNzUgQyAzLjg5ODQzOCAwLjA3ODEyNSAzLjQ1MzEyNSAwLjE3MTg3NSAyLjkyMTg3NSAwLjE3MTg3NSBDIDIuMjQyMTg4IDAuMTcxODc1IDEuNzA3MDMxIC0wLjAxNTYyNSAxLjMxMjUgLTAuMzkwNjI1IEMgMC45MTQwNjIgLTAuNzczNDM4IDAuNzE4NzUgLTEuMjgxMjUgMC43MTg3NSAtMS45MDYyNSBDIDAuNzE4NzUgLTIuNjQ0NTMxIDAuOTYwOTM4IC0zLjIwMzEyNSAxLjQ1MzEyNSAtMy41NzgxMjUgQyAxLjk1MzEyNSAtMy45NTMxMjUgMi42OTE0MDYgLTQuMTQwNjI1IDMuNjcxODc1IC00LjE0MDYyNSBMIDUuMTg3NSAtNC4xNDA2MjUgTCA1LjE4NzUgLTQuMjUgQyA1LjE4NzUgLTQuNzUgNS4wMTk1MzEgLTUuMTMyODEyIDQuNjg3NSAtNS40MDYyNSBDIDQuMzYzMjgxIC01LjY3NTc4MSAzLjkxMDE1NiAtNS44MTI1IDMuMzI4MTI1IC01LjgxMjUgQyAyLjk1MzEyNSAtNS44MTI1IDIuNTgyMDMxIC01Ljc2NTYyNSAyLjIxODc1IC01LjY3MTg3NSBDIDEuODYzMjgxIC01LjU3ODEyNSAxLjUyMzQzOCAtNS40NDE0MDYgMS4yMDMxMjUgLTUuMjY1NjI1IEwgMS4yMDMxMjUgLTYuMjY1NjI1IEMgMS41OTc2NTYgLTYuNDIxODc1IDEuOTc2NTYyIC02LjUzNTE1NiAyLjM0Mzc1IC02LjYwOTM3NSBDIDIuNzE4NzUgLTYuNjc5Njg4IDMuMDgyMDMxIC02LjcxODc1IDMuNDM3NSAtNi43MTg3NSBDIDQuMzgyODEyIC02LjcxODc1IDUuMDkzNzUgLTYuNDcyNjU2IDUuNTYyNSAtNS45ODQzNzUgQyA2LjAzMTI1IC01LjQ5MjE4OCA2LjI2NTYyNSAtNC43NSA2LjI2NTYyNSAtMy43NSBaIE0gNi4yNjU2MjUgLTMuNzUgIi8+Cjwvc3ltYm9sPgo8c3ltYm9sIG92ZXJmbG93PSJ2aXNpYmxlIiBpZD0iZ2x5cGgwLTMiPgo8cGF0aCBzdHlsZT0ic3Ryb2tlOm5vbmU7IiBkPSJNIDEuMTcxODc1IC04Ljc1IEwgMi4zNTkzNzUgLTguNzUgTCAyLjM1OTM3NSAtNS4xNTYyNSBMIDYuNjU2MjUgLTUuMTU2MjUgTCA2LjY1NjI1IC04Ljc1IEwgNy44NDM3NSAtOC43NSBMIDcuODQzNzUgMCBMIDYuNjU2MjUgMCBMIDYuNjU2MjUgLTQuMTcxODc1IEwgMi4zNTkzNzUgLTQuMTcxODc1IEwgMi4zNTkzNzUgMCBMIDEuMTcxODc1IDAgWiBNIDEuMTcxODc1IC04Ljc1ICIvPgo8L3N5bWJvbD4KPC9nPgo8L2RlZnM+CjxnIGlkPSJzdXJmYWNlNzgiPgo8cmVjdCB4PSIwIiB5PSIwIiB3aWR0aD0iMzAwIiBoZWlnaHQ9IjMwMCIgc3R5bGU9ImZpbGw6cmdiKDEwMCUsMTAwJSwxMDAlKTtmaWxsLW9wYWNpdHk6MTtzdHJva2U6bm9uZTsiLz4KPGcgc3R5bGU9ImZpbGw6cmdiKDAlLDAlLDAlKTtmaWxsLW9wYWNpdHk6MTsiPgogIDx1c2UgeGxpbms6aHJlZj0iI2dseXBoMC0xIiB4PSIxNzQuNDU3MDMxIiB5PSIxNjMuNzAxMTcyIi8+CiAgPHVzZSB4bGluazpocmVmPSIjZ2x5cGgwLTIiIHg9IjE4My40MzM1OTQiIHk9IjE2My43MDExNzIiLz4KICA8dXNlIHhsaW5rOmhyZWY9IiNnbHlwaDAtMyIgeD0iMTkwLjc4NzEwOSIgeT0iMTYzLjcwMTE3MiIvPgo8L2c+CjxwYXRoIHN0eWxlPSJmaWxsOm5vbmU7c3Ryb2tlLXdpZHRoOjEuMjtzdHJva2UtbGluZWNhcDpidXR0O3N0cm9rZS1saW5lam9pbjptaXRlcjtzdHJva2U6cmdiKDAlLDAlLDAlKTtzdHJva2Utb3BhY2l0eToxO3N0cm9rZS1taXRlcmxpbWl0OjEwOyIgZD0iTSAxMTYuODc1IDE1OS41NjI1IEwgMTUwIDE0MC40Mzc1ICIvPgo8cGF0aCBzdHlsZT0iZmlsbDpub25lO3N0cm9rZS13aWR0aDoxLjI7c3Ryb2tlLWxpbmVjYXA6YnV0dDtzdHJva2UtbGluZWpvaW46bWl0ZXI7c3Ryb2tlOnJnYigwJSwwJSwwJSk7c3Ryb2tlLW9wYWNpdHk6MTtzdHJva2UtbWl0ZXJsaW1pdDoxMDsiIGQ9Ik0gMTQ4LjEyNSAxNDMuNjgzNTk0IEwgMTcxLjE4MzU5NCAxNTcgIi8+CjxwYXRoIHN0eWxlPSJmaWxsOm5vbmU7c3Ryb2tlLXdpZHRoOjEuMjtzdHJva2UtbGluZWNhcDpidXR0O3N0cm9rZS1saW5lam9pbjptaXRlcjtzdHJva2U6cmdiKDAlLDAlLDAlKTtzdHJva2Utb3BhY2l0eToxO3N0cm9rZS1taXRlcmxpbWl0OjEwOyIgZD0iTSAxNTEuODc1IDEzNy4xOTE0MDYgTCAxNzQuOTMzNTk0IDE1MC41MDM5MDYgIi8+CjwvZz4KPC9zdmc+Cg=='
p212
sa(dp213
g2
(dp214
g4
(lp215
(dp216
g7
g8
sg9
g32
sg10
g11
sa(dp217
g7
g13
sg9
g32
sg10
g11
sa(dp218
g7
g32
sg9
g84
sg10
g11
sasg14
(lp219
(dp220
g17
g8
sg18
g13
sa(dp221
g17
g13
sg18
g32
sassg19
g20
sg21
S'19'
p222
sg22
S'CC[Na]'
p223
sg24
S'PD94bWwgdmVyc2lvbj0iMS4wIiBlbmNvZGluZz0iVVRGLTgiPz4KPHN2ZyB4bWxucz0iaHR0cDovL3d3dy53My5vcmcvMjAwMC9zdmciIHhtbG5zOnhsaW5rPSJodHRwOi8vd3d3LnczLm9yZy8xOTk5L3hsaW5rIiB3aWR0aD0iMzAwcHQiIGhlaWdodD0iMzAwcHQiIHZpZXdCb3g9IjAgMCAzMDAgMzAwIiB2ZXJzaW9uPSIxLjEiPgo8ZGVmcz4KPGc+CjxzeW1ib2wgb3ZlcmZsb3c9InZpc2libGUiIGlkPSJnbHlwaDAtMCI+CjxwYXRoIHN0eWxlPSJzdHJva2U6bm9uZTsiIGQ9Ik0gMC41OTM3NSAyLjEyNSBMIDAuNTkzNzUgLTguNDY4NzUgTCA2LjU5Mzc1IC04LjQ2ODc1IEwgNi41OTM3NSAyLjEyNSBaIE0gMS4yNjU2MjUgMS40NTMxMjUgTCA1LjkzNzUgMS40NTMxMjUgTCA1LjkzNzUgLTcuNzgxMjUgTCAxLjI2NTYyNSAtNy43ODEyNSBaIE0gMS4yNjU2MjUgMS40NTMxMjUgIi8+Cjwvc3ltYm9sPgo8c3ltYm9sIG92ZXJmbG93PSJ2aXNpYmxlIiBpZD0iZ2x5cGgwLTEiPgo8cGF0aCBzdHlsZT0ic3Ryb2tlOm5vbmU7IiBkPSJNIDEuMTcxODc1IC04Ljc1IEwgMi43NjU2MjUgLTguNzUgTCA2LjY1NjI1IC0xLjQzNzUgTCA2LjY1NjI1IC04Ljc1IEwgNy43OTY4NzUgLTguNzUgTCA3Ljc5Njg3NSAwIEwgNi4yMDMxMjUgMCBMIDIuMzI4MTI1IC03LjMxMjUgTCAyLjMyODEyNSAwIEwgMS4xNzE4NzUgMCBaIE0gMS4xNzE4NzUgLTguNzUgIi8+Cjwvc3ltYm9sPgo8c3ltYm9sIG92ZXJmbG93PSJ2aXNpYmxlIiBpZD0iZ2x5cGgwLTIiPgo8cGF0aCBzdHlsZT0ic3Ryb2tlOm5vbmU7IiBkPSJNIDQuMTA5Mzc1IC0zLjI5Njg3NSBDIDMuMjQyMTg4IC0zLjI5Njg3NSAyLjY0MDYyNSAtMy4xOTUzMTIgMi4yOTY4NzUgLTMgQyAxLjk2MDkzOCAtMi44MDA3ODEgMS43OTY4NzUgLTIuNDYwOTM4IDEuNzk2ODc1IC0xLjk4NDM3NSBDIDEuNzk2ODc1IC0xLjU5NzY1NiAxLjkyMTg3NSAtMS4yODkwNjIgMi4xNzE4NzUgLTEuMDYyNSBDIDIuNDI5Njg4IC0wLjg0Mzc1IDIuNzczNDM4IC0wLjczNDM3NSAzLjIwMzEyNSAtMC43MzQzNzUgQyAzLjgwNDY4OCAtMC43MzQzNzUgNC4yODUxNTYgLTAuOTQxNDA2IDQuNjQwNjI1IC0xLjM1OTM3NSBDIDUuMDAzOTA2IC0xLjc4NTE1NiA1LjE4NzUgLTIuMzUxNTYyIDUuMTg3NSAtMy4wNjI1IEwgNS4xODc1IC0zLjI5Njg3NSBaIE0gNi4yNjU2MjUgLTMuNzUgTCA2LjI2NTYyNSAwIEwgNS4xODc1IDAgTCA1LjE4NzUgLTEgQyA0LjkzNzUgLTAuNjAxNTYyIDQuNjI4OTA2IC0wLjMwNDY4OCA0LjI2NTYyNSAtMC4xMDkzNzUgQyAzLjg5ODQzOCAwLjA3ODEyNSAzLjQ1MzEyNSAwLjE3MTg3NSAyLjkyMTg3NSAwLjE3MTg3NSBDIDIuMjQyMTg4IDAuMTcxODc1IDEuNzA3MDMxIC0wLjAxNTYyNSAxLjMxMjUgLTAuMzkwNjI1IEMgMC45MTQwNjIgLTAuNzczNDM4IDAuNzE4NzUgLTEuMjgxMjUgMC43MTg3NSAtMS45MDYyNSBDIDAuNzE4NzUgLTIuNjQ0NTMxIDAuOTYwOTM4IC0zLjIwMzEyNSAxLjQ1MzEyNSAtMy41NzgxMjUgQyAxLjk1MzEyNSAtMy45NTMxMjUgMi42OTE0MDYgLTQuMTQwNjI1IDMuNjcxODc1IC00LjE0MDYyNSBMIDUuMTg3NSAtNC4xNDA2MjUgTCA1LjE4NzUgLTQuMjUgQyA1LjE4NzUgLTQuNzUgNS4wMTk1MzEgLTUuMTMyODEyIDQuNjg3NSAtNS40MDYyNSBDIDQuMzYzMjgxIC01LjY3NTc4MSAzLjkxMDE1NiAtNS44MTI1IDMuMzI4MTI1IC01LjgxMjUgQyAyLjk1MzEyNSAtNS44MTI1IDIuNTgyMDMxIC01Ljc2NTYyNSAyLjIxODc1IC01LjY3MTg3NSBDIDEuODYzMjgxIC01LjU3ODEyNSAxLjUyMzQzOCAtNS40NDE0MDYgMS4yMDMxMjUgLTUuMjY1NjI1IEwgMS4yMDMxMjUgLTYuMjY1NjI1IEMgMS41OTc2NTYgLTYuNDIxODc1IDEuOTc2NTYyIC02LjUzNTE1NiAyLjM0Mzc1IC02LjYwOTM3NSBDIDIuNzE4NzUgLTYuNjc5Njg4IDMuMDgyMDMxIC02LjcxODc1IDMuNDM3NSAtNi43MTg3NSBDIDQuMzgyODEyIC02LjcxODc1IDUuMDkzNzUgLTYuNDcyNjU2IDUuNTYyNSAtNS45ODQzNzUgQyA2LjAzMTI1IC01LjQ5MjE4OCA2LjI2NTYyNSAtNC43NSA2LjI2NTYyNSAtMy43NSBaIE0gNi4yNjU2MjUgLTMuNzUgIi8+Cjwvc3ltYm9sPgo8c3ltYm9sIG92ZXJmbG93PSJ2aXNpYmxlIiBpZD0iZ2x5cGgwLTMiPgo8cGF0aCBzdHlsZT0ic3Ryb2tlOm5vbmU7IiBkPSJNIDEuMTcxODc1IC04Ljc1IEwgMi4zNTkzNzUgLTguNzUgTCAyLjM1OTM3NSAtNS4xNTYyNSBMIDYuNjU2MjUgLTUuMTU2MjUgTCA2LjY1NjI1IC04Ljc1IEwgNy44NDM3NSAtOC43NSBMIDcuODQzNzUgMCBMIDYuNjU2MjUgMCBMIDYuNjU2MjUgLTQuMTcxODc1IEwgMi4zNTkzNzUgLTQuMTcxODc1IEwgMi4zNTkzNzUgMCBMIDEuMTcxODc1IDAgWiBNIDEuMTcxODc1IC04Ljc1ICIvPgo8L3N5bWJvbD4KPC9nPgo8L2RlZnM+CjxnIGlkPSJzdXJmYWNlODIiPgo8cmVjdCB4PSIwIiB5PSIwIiB3aWR0aD0iMzAwIiBoZWlnaHQ9IjMwMCIgc3R5bGU9ImZpbGw6cmdiKDEwMCUsMTAwJSwxMDAlKTtmaWxsLW9wYWNpdHk6MTtzdHJva2U6bm9uZTsiLz4KPGcgc3R5bGU9ImZpbGw6cmdiKDAlLDAlLDAlKTtmaWxsLW9wYWNpdHk6MTsiPgogIDx1c2UgeGxpbms6aHJlZj0iI2dseXBoMC0xIiB4PSIxNzQuNDU3MDMxIiB5PSIxNjMuNzAxMTcyIi8+CiAgPHVzZSB4bGluazpocmVmPSIjZ2x5cGgwLTIiIHg9IjE4My40MzM1OTQiIHk9IjE2My43MDExNzIiLz4KICA8dXNlIHhsaW5rOmhyZWY9IiNnbHlwaDAtMyIgeD0iMTkwLjc4NzEwOSIgeT0iMTYzLjcwMTE3MiIvPgo8L2c+CjxwYXRoIHN0eWxlPSJmaWxsOm5vbmU7c3Ryb2tlLXdpZHRoOjEuMjtzdHJva2UtbGluZWNhcDpidXR0O3N0cm9rZS1saW5lam9pbjptaXRlcjtzdHJva2U6cmdiKDAlLDAlLDAlKTtzdHJva2Utb3BhY2l0eToxO3N0cm9rZS1taXRlcmxpbWl0OjEwOyIgZD0iTSAxMTYuODc1IDE1OS41NjI1IEwgMTUwIDE0MC40Mzc1ICIvPgo8cGF0aCBzdHlsZT0iZmlsbDpub25lO3N0cm9rZS13aWR0aDoxLjI7c3Ryb2tlLWxpbmVjYXA6YnV0dDtzdHJva2UtbGluZWpvaW46bWl0ZXI7c3Ryb2tlOnJnYigwJSwwJSwwJSk7c3Ryb2tlLW9wYWNpdHk6MTtzdHJva2UtbWl0ZXJsaW1pdDoxMDsiIGQ9Ik0gMTUwIDE0MC40Mzc1IEwgMTczLjA1ODU5NCAxNTMuNzUgIi8+CjwvZz4KPC9zdmc+Cg=='
p224
sa(dp225
g2
(dp226
g4
(lp227
(dp228
g7
g8
sg9
g32
sg10
g11
sa(dp229
g7
g13
sg9
g32
sg10
g11
sa(dp230
g7
g32
sg9
g84
sg10
g11
sasg14
(lp231
(dp232
g17
g8
sg18
g13
sa(dp233
g17
g8
sg18
g32
sa(dp234
g17
g13
sg18
g32
sassg19
g20
sg21
S'20'
p235
sg22
S'C1C[Na]=1'
p236
sg24
S'PD94bWwgdmVyc2lvbj0iMS4wIiBlbmNvZGluZz0iVVRGLTgiPz4KPHN2ZyB4bWxucz0iaHR0cDovL3d3dy53My5vcmcvMjAwMC9zdmciIHhtbG5zOnhsaW5rPSJodHRwOi8vd3d3LnczLm9yZy8xOTk5L3hsaW5rIiB3aWR0aD0iMzAwcHQiIGhlaWdodD0iMzAwcHQiIHZpZXdCb3g9IjAgMCAzMDAgMzAwIiB2ZXJzaW9uPSIxLjEiPgo8ZGVmcz4KPGc+CjxzeW1ib2wgb3ZlcmZsb3c9InZpc2libGUiIGlkPSJnbHlwaDAtMCI+CjxwYXRoIHN0eWxlPSJzdHJva2U6bm9uZTsiIGQ9Ik0gMC41OTM3NSAyLjEyNSBMIDAuNTkzNzUgLTguNDY4NzUgTCA2LjU5Mzc1IC04LjQ2ODc1IEwgNi41OTM3NSAyLjEyNSBaIE0gMS4yNjU2MjUgMS40NTMxMjUgTCA1LjkzNzUgMS40NTMxMjUgTCA1LjkzNzUgLTcuNzgxMjUgTCAxLjI2NTYyNSAtNy43ODEyNSBaIE0gMS4yNjU2MjUgMS40NTMxMjUgIi8+Cjwvc3ltYm9sPgo8c3ltYm9sIG92ZXJmbG93PSJ2aXNpYmxlIiBpZD0iZ2x5cGgwLTEiPgo8cGF0aCBzdHlsZT0ic3Ryb2tlOm5vbmU7IiBkPSJNIDEuMTcxODc1IC04Ljc1IEwgMi43NjU2MjUgLTguNzUgTCA2LjY1NjI1IC0xLjQzNzUgTCA2LjY1NjI1IC04Ljc1IEwgNy43OTY4NzUgLTguNzUgTCA3Ljc5Njg3NSAwIEwgNi4yMDMxMjUgMCBMIDIuMzI4MTI1IC03LjMxMjUgTCAyLjMyODEyNSAwIEwgMS4xNzE4NzUgMCBaIE0gMS4xNzE4NzUgLTguNzUgIi8+Cjwvc3ltYm9sPgo8c3ltYm9sIG92ZXJmbG93PSJ2aXNpYmxlIiBpZD0iZ2x5cGgwLTIiPgo8cGF0aCBzdHlsZT0ic3Ryb2tlOm5vbmU7IiBkPSJNIDQuMTA5Mzc1IC0zLjI5Njg3NSBDIDMuMjQyMTg4IC0zLjI5Njg3NSAyLjY0MDYyNSAtMy4xOTUzMTIgMi4yOTY4NzUgLTMgQyAxLjk2MDkzOCAtMi44MDA3ODEgMS43OTY4NzUgLTIuNDYwOTM4IDEuNzk2ODc1IC0xLjk4NDM3NSBDIDEuNzk2ODc1IC0xLjU5NzY1NiAxLjkyMTg3NSAtMS4yODkwNjIgMi4xNzE4NzUgLTEuMDYyNSBDIDIuNDI5Njg4IC0wLjg0Mzc1IDIuNzczNDM4IC0wLjczNDM3NSAzLjIwMzEyNSAtMC43MzQzNzUgQyAzLjgwNDY4OCAtMC43MzQzNzUgNC4yODUxNTYgLTAuOTQxNDA2IDQuNjQwNjI1IC0xLjM1OTM3NSBDIDUuMDAzOTA2IC0xLjc4NTE1NiA1LjE4NzUgLTIuMzUxNTYyIDUuMTg3NSAtMy4wNjI1IEwgNS4xODc1IC0zLjI5Njg3NSBaIE0gNi4yNjU2MjUgLTMuNzUgTCA2LjI2NTYyNSAwIEwgNS4xODc1IDAgTCA1LjE4NzUgLTEgQyA0LjkzNzUgLTAuNjAxNTYyIDQuNjI4OTA2IC0wLjMwNDY4OCA0LjI2NTYyNSAtMC4xMDkzNzUgQyAzLjg5ODQzOCAwLjA3ODEyNSAzLjQ1MzEyNSAwLjE3MTg3NSAyLjkyMTg3NSAwLjE3MTg3NSBDIDIuMjQyMTg4IDAuMTcxODc1IDEuNzA3MDMxIC0wLjAxNTYyNSAxLjMxMjUgLTAuMzkwNjI1IEMgMC45MTQwNjIgLTAuNzczNDM4IDAuNzE4NzUgLTEuMjgxMjUgMC43MTg3NSAtMS45MDYyNSBDIDAuNzE4NzUgLTIuNjQ0NTMxIDAuOTYwOTM4IC0zLjIwMzEyNSAxLjQ1MzEyNSAtMy41NzgxMjUgQyAxLjk1MzEyNSAtMy45NTMxMjUgMi42OTE0MDYgLTQuMTQwNjI1IDMuNjcxODc1IC00LjE0MDYyNSBMIDUuMTg3NSAtNC4xNDA2MjUgTCA1LjE4NzUgLTQuMjUgQyA1LjE4NzUgLTQuNzUgNS4wMTk1MzEgLTUuMTMyODEyIDQuNjg3NSAtNS40MDYyNSBDIDQuMzYzMjgxIC01LjY3NTc4MSAzLjkxMDE1NiAtNS44MTI1IDMuMzI4MTI1IC01LjgxMjUgQyAyLjk1MzEyNSAtNS44MTI1IDIuNTgyMDMxIC01Ljc2NTYyNSAyLjIxODc1IC01LjY3MTg3NSBDIDEuODYzMjgxIC01LjU3ODEyNSAxLjUyMzQzOCAtNS40NDE0MDYgMS4yMDMxMjUgLTUuMjY1NjI1IEwgMS4yMDMxMjUgLTYuMjY1NjI1IEMgMS41OTc2NTYgLTYuNDIxODc1IDEuOTc2NTYyIC02LjUzNTE1NiAyLjM0Mzc1IC02LjYwOTM3NSBDIDIuNzE4NzUgLTYuNjc5Njg4IDMuMDgyMDMxIC02LjcxODc1IDMuNDM3NSAtNi43MTg3NSBDIDQuMzgyODEyIC02LjcxODc1IDUuMDkzNzUgLTYuNDcyNjU2IDUuNTYyNSAtNS45ODQzNzUgQyA2LjAzMTI1IC01LjQ5MjE4OCA2LjI2NTYyNSAtNC43NSA2LjI2NTYyNSAtMy43NSBaIE0gNi4yNjU2MjUgLTMuNzUgIi8+Cjwvc3ltYm9sPgo8c3ltYm9sIG92ZXJmbG93PSJ2aXNpYmxlIiBpZD0iZ2x5cGgwLTMiPgo8cGF0aCBzdHlsZT0ic3Ryb2tlOm5vbmU7IiBkPSJNIDEuMTcxODc1IC04Ljc1IEwgMi4zNTkzNzUgLTguNzUgTCAyLjM1OTM3NSAtNS4xNTYyNSBMIDYuNjU2MjUgLTUuMTU2MjUgTCA2LjY1NjI1IC04Ljc1IEwgNy44NDM3NSAtOC43NSBMIDcuODQzNzUgMCBMIDYuNjU2MjUgMCBMIDYuNjU2MjUgLTQuMTcxODc1IEwgMi4zNTkzNzUgLTQuMTcxODc1IEwgMi4zNTkzNzUgMCBMIDEuMTcxODc1IDAgWiBNIDEuMTcxODc1IC04Ljc1ICIvPgo8L3N5bWJvbD4KPC9nPgo8L2RlZnM+CjxnIGlkPSJzdXJmYWNlODYiPgo8cmVjdCB4PSIwIiB5PSIwIiB3aWR0aD0iMzAwIiBoZWlnaHQ9IjMwMCIgc3R5bGU9ImZpbGw6cmdiKDEwMCUsMTAwJSwxMDAlKTtmaWxsLW9wYWNpdHk6MTtzdHJva2U6bm9uZTsiLz4KPGcgc3R5bGU9ImZpbGw6cmdiKDAlLDAlLDAlKTtmaWxsLW9wYWNpdHk6MTsiPgogIDx1c2UgeGxpbms6aHJlZj0iI2dseXBoMC0xIiB4PSIxNTcuODk0NTMxIiB5PSIxNTQuMTM4NjcyIi8+CiAgPHVzZSB4bGluazpocmVmPSIjZ2x5cGgwLTIiIHg9IjE2Ni44NzEwOTQiIHk9IjE1NC4xMzg2NzIiLz4KICA8dXNlIHhsaW5rOmhyZWY9IiNnbHlwaDAtMyIgeD0iMTc0LjIyNDYwOSIgeT0iMTU0LjEzODY3MiIvPgo8L2c+CjxwYXRoIHN0eWxlPSJmaWxsOm5vbmU7c3Ryb2tlLXdpZHRoOjEuMjtzdHJva2UtbGluZWNhcDpidXR0O3N0cm9rZS1saW5lam9pbjptaXRlcjtzdHJva2U6cmdiKDAlLDAlLDAlKTtzdHJva2Utb3BhY2l0eToxO3N0cm9rZS1taXRlcmxpbWl0OjEwOyIgZD0iTSAxMzMuNDM3NSAxNjkuMTI1IEwgMTMzLjQzNzUgMTMwLjg3NSAiLz4KPHBhdGggc3R5bGU9ImZpbGw6bm9uZTtzdHJva2Utd2lkdGg6MS4yO3N0cm9rZS1saW5lY2FwOmJ1dHQ7c3Ryb2tlLWxpbmVqb2luOm1pdGVyO3N0cm9rZTpyZ2IoMCUsMCUsMCUpO3N0cm9rZS1vcGFjaXR5OjE7c3Ryb2tlLW1pdGVybGltaXQ6MTA7IiBkPSJNIDEzMy40Mzc1IDE2OS4xMjUgTCAxNTYuNDk2MDk0IDE1NS44MTI1ICIvPgo8cGF0aCBzdHlsZT0iZmlsbDpub25lO3N0cm9rZS13aWR0aDoxLjI7c3Ryb2tlLWxpbmVjYXA6YnV0dDtzdHJva2UtbGluZWpvaW46bWl0ZXI7c3Ryb2tlOnJnYigwJSwwJSwwJSk7c3Ryb2tlLW9wYWNpdHk6MTtzdHJva2UtbWl0ZXJsaW1pdDoxMDsiIGQ9Ik0gMTMxLjk5MjE4OCAxNjEuMjk2ODc1IEwgMTUwLjQ0MTQwNiAxNTAuNjQ4NDM4ICIvPgo8cGF0aCBzdHlsZT0iZmlsbDpub25lO3N0cm9rZS13aWR0aDoxLjI7c3Ryb2tlLWxpbmVjYXA6YnV0dDtzdHJva2UtbGluZWpvaW46bWl0ZXI7c3Ryb2tlOnJnYigwJSwwJSwwJSk7c3Ryb2tlLW9wYWNpdHk6MTtzdHJva2UtbWl0ZXJsaW1pdDoxMDsiIGQ9Ik0gMTMzLjQzNzUgMTMwLjg3NSBMIDE1Ni40OTYwOTQgMTQ0LjE4NzUgIi8+CjwvZz4KPC9zdmc+Cg=='
p237
sa.