(lp0
(dp1
S'graph'
p2
(dp3
S'nodes'
p4
(lp5
(dp6
S'name'
p7
S'0'
p8
sS'value'
p9
S'2'
p10
sa(dp11
g7
S'1'
p12
sg9
g10
sasS'links'
p13
(lp14
(dp15
S'source'
p16
g8
sS'target'
p17
g12
sassS'support'
p18
S'3004'
p19
sS'gid'
p20
g12
sS'string'
p21
S'C=C'
p22
sa(dp23
g2
(dp24
g4
(lp25
(dp26
g7
g8
sg9
g12
sa(dp27
g7
g12
sg9
g10
sasg13
(lp28
(dp29
g16
g8
sg17
g12
sassg18
S'2501'
p30
sg20
g10
sg21
S'CN'
p31
sa(dp32
g2
(dp33
g4
(lp34
(dp35
g7
g8
sg9
g12
sa(dp36
g7
g12
sg9
g10
sa(dp37
g7
g10
sg9
g10
sasg13
(lp38
(dp39
g16
g8
sg17
g12
sa(dp40
g16
g12
sg17
g10
sassg18
S'2411'
p41
sg20
S'3'
p42
sg21
S'CCN'
p43
sa(dp44
g2
(dp45
g4
(lp46
(dp47
g7
g8
sg9
g10
sa(dp48
g7
g12
sg9
g10
sasg13
(lp49
(dp50
g16
g8
sg17
g12
sassg18
S'3136'
p51
sg20
S'4'
p52
sg21
S'CC'
p53
sa(dp54
g2
(dp55
g4
(lp56
(dp57
g7
g8
sg9
g10
sa(dp58
g7
g12
sg9
g10
sa(dp59
g7
g10
sg9
g10
sasg13
(lp60
(dp61
g16
g8
sg17
g12
sa(dp62
g16
g12
sg17
g10
sassg18
S'3058'
p63
sg20
S'5'
p64
sg21
S'CCC'
p65
sa(dp66
g2
(dp67
g4
(lp68
(dp69
g7
g8
sg9
g10
sa(dp70
g7
g12
sg9
g10
sa(dp71
g7
g10
sg9
g10
sa(dp72
g7
g42
sg9
g10
sasg13
(lp73
(dp74
g16
g8
sg17
g12
sa(dp75
g16
g12
sg17
g10
sa(dp76
g16
g10
sg17
g42
sassg18
S'2688'
p77
sg20
S'6'
p78
sg21
S'CCCC'
p79
sa(dp80
g2
(dp81
g4
(lp82
(dp83
g7
g8
sg9
g10
sa(dp84
g7
g12
sg9
g10
sa(dp85
g7
g10
sg9
g10
sa(dp86
g7
g42
sg9
g10
sa(dp87
g7
g52
sg9
g10
sasg13
(lp88
(dp89
g16
g8
sg17
g12
sa(dp90
g16
g12
sg17
g10
sa(dp91
g16
g10
sg17
g42
sa(dp92
g16
g10
sg17
g52
sassg18
S'2244'
p93
sg20
S'7'
p94
sg21
S'C=C(C)CC'
p95
sa(dp96
g2
(dp97
g4
(lp98
(dp99
g7
g8
sg9
g10
sa(dp100
g7
g12
sg9
g10
sa(dp101
g7
g10
sg9
g10
sa(dp102
g7
g42
sg9
g10
sa(dp103
g7
g52
sg9
g10
sasg13
(lp104
(dp105
g16
g8
sg17
g12
sa(dp106
g16
g12
sg17
g10
sa(dp107
g16
g10
sg17
g42
sa(dp108
g16
g42
sg17
g52
sassg18
S'2307'
p109
sg20
S'8'
p110
sg21
S'C=CCCC'
p111
sa(dp112
g2
(dp113
g4
(lp114
(dp115
g7
g8
sg9
g10
sa(dp116
g7
g12
sg9
g10
sa(dp117
g7
g10
sg9
g10
sa(dp118
g7
g42
sg9
g10
sa(dp119
g7
g52
sg9
g10
sa(dp120
g7
g64
sg9
g10
sasg13
(lp121
(dp122
g16
g8
sg17
g12
sa(dp123
g16
g12
sg17
g10
sa(dp124
g16
g10
sg17
g42
sa(dp125
g16
g42
sg17
g52
sa(dp126
g16
g52
sg17
g64
sassg18
S'2242'
p127
sg20
S'9'
p128
sg21
S'CC=CCCC'
p129
sa(dp130
g2
(dp131
g4
(lp132
(dp133
g7
g8
sg9
g10
sa(dp134
g7
g12
sg9
g10
sa(dp135
g7
g10
sg9
g10
sa(dp136
g7
g42
sg9
g10
sasg13
(lp137
(dp138
g16
g8
sg17
g12
sa(dp139
g16
g12
sg17
g10
sa(dp140
g16
g10
sg17
g42
sassg18
S'2796'
p141
sg20
S'10'
p142
sg21
S'C=CCC'
p143
sa(dp144
g2
(dp145
g4
(lp146
(dp147
g7
g8
sg9
g10
sa(dp148
g7
g12
sg9
g10
sa(dp149
g7
g10
sg9
g10
sa(dp150
g7
g42
sg9
g10
sa(dp151
g7
g52
sg9
g10
sasg13
(lp152
(dp153
g16
g8
sg17
g12
sa(dp154
g16
g12
sg17
g10
sa(dp155
g16
g10
sg17
g42
sa(dp156
g16
g42
sg17
g52
sassg18
S'2719'
p157
sg20
S'11'
p158
sg21
S'CC=CCC'
p159
sa(dp160
g2
(dp161
g4
(lp162
(dp163
g7
g8
sg9
g10
sa(dp164
g7
g12
sg9
g10
sa(dp165
g7
g10
sg9
g10
sa(dp166
g7
g42
sg9
g10
sa(dp167
g7
g52
sg9
g10
sa(dp168
g7
g64
sg9
g10
sasg13
(lp169
(dp170
g16
g8
sg17
g12
sa(dp171
g16
g12
sg17
g10
sa(dp172
g16
g10
sg17
g42
sa(dp173
g16
g42
sg17
g52
sa(dp174
g16
g52
sg17
g64
sassg18
S'2455'
p175
sg20
S'12'
p176
sg21
S'C=CC=CCC'
p177
sa(dp178
g2
(dp179
g4
(lp180
(dp181
g7
g8
sg9
g10
sa(dp182
g7
g12
sg9
g10
sa(dp183
g7
g10
sg9
g10
sa(dp184
g7
g42
sg9
g10
sa(dp185
g7
g52
sg9
g10
sa(dp186
g7
g64
sg9
g10
sa(dp187
g7
g78
sg9
g10
sasg13
(lp188
(dp189
g16
g8
sg17
g12
sa(dp190
g16
g12
sg17
g10
sa(dp191
g16
g10
sg17
g42
sa(dp192
g16
g42
sg17
g52
sa(dp193
g16
g52
sg17
g64
sa(dp194
g16
g64
sg17
g78
sassg18
S'2396'
p195
sg20
S'13'
p196
sg21
S'CC=CC=CCC'
p197
sa(dp198
g2
(dp199
g4
(lp200
(dp201
g7
g8
sg9
g10
sa(dp202
g7
g12
sg9
g10
sa(dp203
g7
g10
sg9
g10
sa(dp204
g7
g42
sg9
g10
sa(dp205
g7
g52
sg9
g10
sa(dp206
g7
g64
sg9
g10
sa(dp207
g7
g78
sg9
g10
sasg13
(lp208
(dp209
g16
g8
sg17
g12
sa(dp210
g16
g12
sg17
g10
sa(dp211
g16
g12
sg17
g78
sa(dp212
g16
g10
sg17
g42
sa(dp213
g16
g42
sg17
g52
sa(dp214
g16
g52
sg17
g64
sassg18
S'2252'
p215
sg20
S'14'
p216
sg21
S'C=CC=CC(=C)C'
p217
sa(dp218
g2
(dp219
g4
(lp220
(dp221
g7
g8
sg9
g10
sa(dp222
g7
g12
sg9
g10
sa(dp223
g7
g10
sg9
g10
sa(dp224
g7
g42
sg9
g10
sa(dp225
g7
g52
sg9
g10
sa(dp226
g7
g64
sg9
g10
sasg13
(lp227
(dp228
g16
g8
sg17
g12
sa(dp229
g16
g12
sg17
g10
sa(dp230
g16
g12
sg17
g64
sa(dp231
g16
g10
sg17
g42
sa(dp232
g16
g42
sg17
g52
sassg18
S'2367'
p233
sg20
S'15'
p234
sg21
S'C=C(C)C=CC'
p235
sa(dp236
g2
(dp237
g4
(lp238
(dp239
g7
g8
sg9
g10
sa(dp240
g7
g12
sg9
g10
sa(dp241
g7
g10
sg9
g10
sa(dp242
g7
g42
sg9
g10
sa(dp243
g7
g52
sg9
g10
sa(dp244
g7
g64
sg9
g10
sa(dp245
g7
g78
sg9
g10
sasg13
(lp246
(dp247
g16
g8
sg17
g12
sa(dp248
g16
g12
sg17
g10
sa(dp249
g16
g12
sg17
g64
sa(dp250
g16
g10
sg17
g42
sa(dp251
g16
g42
sg17
g52
sa(dp252
g16
g64
sg17
g78
sassg18
S'2306'
p253
sg20
S'16'
p254
sg21
S'CC=CC(C)=CC'
p255
sa(dp256
g2
(dp257
g4
(lp258
(dp259
g7
g8
sg9
g10
sa(dp260
g7
g12
sg9
g10
sa(dp261
g7
g10
sg9
g10
sa(dp262
g7
g42
sg9
g10
sa(dp263
g7
g52
sg9
g10
sasg13
(lp264
(dp265
g16
g8
sg17
g12
sa(dp266
g16
g12
sg17
g10
sa(dp267
g16
g12
sg17
g52
sa(dp268
g16
g10
sg17
g42
sassg18
S'2395'
p269
sg20
S'17'
p270
sg21
S'C=CC(=C)C'
p271
sa(dp272
g2
(dp273
g4
(lp274
(dp275
g7
g8
sg9
g10
sa(dp276
g7
g12
sg9
g10
sa(dp277
g7
g10
sg9
g10
sa(dp278
g7
g42
sg9
g10
sa(dp279
g7
g52
sg9
g10
sa(dp280
g7
g64
sg9
g10
sasg13
(lp281
(dp282
g16
g8
sg17
g12
sa(dp283
g16
g12
sg17
g10
sa(dp284
g16
g12
sg17
g52
sa(dp285
g16
g10
sg17
g42
sa(dp286
g16
g52
sg17
g64
sassg18
S'2342'
p287
sg20
S'18'
p288
sg21
S'C=CC(C)=CC'
p289
sa(dp290
g2
(dp291
g4
(lp292
(dp293
g7
g8
sg9
g10
sa(dp294
g7
g12
sg9
g10
sa(dp295
g7
g10
sg9
g10
sa(dp296
g7
g42
sg9
g10
sa(dp297
g7
g52
sg9
g10
sa(dp298
g7
g64
sg9
g10
sa(dp299
g7
g78
sg9
g10
sasg13
(lp300
(dp301
g16
g8
sg17
g12
sa(dp302
g16
g12
sg17
g10
sa(dp303
g16
g12
sg17
g52
sa(dp304
g16
g10
sg17
g42
sa(dp305
g16
g52
sg17
g64
sa(dp306
g16
g64
sg17
g78
sassg18
S'2237'
p307
sg20
S'19'
p308
sg21
S'C=CC=C(C)C=C'
p309
sa(dp310
g2
(dp311
g4
(lp312
(dp313
g7
g8
sg9
g10
sa(dp314
g7
g12
sg9
g10
sa(dp315
g7
g10
sg9
g10
sa(dp316
g7
g42
sg9
g10
sasg13
(lp317
(dp318
g16
g8
sg17
g12
sa(dp319
g16
g12
sg17
g10
sa(dp320
g16
g12
sg17
g42
sassg18
S'2676'
p321
sg20
S'20'
p322
sg21
S'C=C(C)C'
p323
sa(dp324
g2
(dp325
g4
(lp326
(dp327
g7
g8
sg9
g10
sa(dp328
g7
g12
sg9
g10
sa(dp329
g7
g10
sg9
g10
sa(dp330
g7
g42
sg9
g10
sa(dp331
g7
g52
sg9
g10
sasg13
(lp332
(dp333
g16
g8
sg17
g12
sa(dp334
g16
g12
sg17
g10
sa(dp335
g16
g12
sg17
g42
sa(dp336
g16
g42
sg17
g52
sassg18
S'2576'
p337
sg20
S'21'
p338
sg21
S'CC=C(C)C'
p339
sa(dp340
g2
(dp341
g4
(lp342
(dp343
g7
g8
sg9
g10
sa(dp344
g7
g12
sg9
g10
sa(dp345
g7
g10
sg9
g10
sa(dp346
g7
g42
sg9
g10
sa(dp347
g7
g52
sg9
g10
sa(dp348
g7
g64
sg9
g10
sasg13
(lp349
(dp350
g16
g8
sg17
g12
sa(dp351
g16
g12
sg17
g10
sa(dp352
g16
g12
sg17
g42
sa(dp353
g16
g42
sg17
g52
sa(dp354
g16
g52
sg17
g64
sassg18
S'2303'
p355
sg20
S'22'
p356
sg21
S'C=CC=C(C)C'
p357
sa(dp358
g2
(dp359
g4
(lp360
(dp361
g7
g8
sg9
g10
sa(dp362
g7
g12
sg9
g10
sa(dp363
g7
g10
sg9
g10
sa(dp364
g7
g42
sg9
g10
sa(dp365
g7
g52
sg9
g10
sa(dp366
g7
g64
sg9
g10
sa(dp367
g7
g78
sg9
g10
sasg13
(lp368
(dp369
g16
g8
sg17
g12
sa(dp370
g16
g12
sg17
g10
sa(dp371
g16
g12
sg17
g42
sa(dp372
g16
g42
sg17
g52
sa(dp373
g16
g52
sg17
g64
sa(dp374
g16
g64
sg17
g78
sassg18
S'2279'
p375
sg20
S'23'
p376
sg21
S'CC=CC=C(C)C'
p377
sa(dp378
g2
(dp379
g4
(lp380
(dp381
g7
g8
sg9
g10
sa(dp382
g7
g12
sg9
g10
sa(dp383
g7
g10
sg9
g10
sasg13
(lp384
(dp385
g16
g8
sg17
g12
sa(dp386
g16
g12
sg17
g10
sassg18
S'2998'
p387
sg20
S'24'
p388
sg21
S'C=CC'
p389
sa(dp390
g2
(dp391
g4
(lp392
(dp393
g7
g8
sg9
g10
sa(dp394
g7
g12
sg9
g10
sa(dp395
g7
g10
sg9
g10
sa(dp396
g7
g42
sg9
g10
sasg13
(lp397
(dp398
g16
g8
sg17
g12
sa(dp399
g16
g8
sg17
g42
sa(dp400
g16
g12
sg17
g10
sassg18
S'2654'
p401
sg20
S'25'
p402
sg21
S'C=CC=C'
p403
sa(dp404
g2
(dp405
g4
(lp406
(dp407
g7
g8
sg9
g10
sa(dp408
g7
g12
sg9
g10
sa(dp409
g7
g10
sg9
g10
sa(dp410
g7
g42
sg9
g10
sasg13
(lp411
(dp412
g16
g8
sg17
g12
sa(dp413
g16
g12
sg17
g10
sa(dp414
g16
g10
sg17
g42
sassg18
S'2872'
p415
sg20
S'26'
p416
sg21
S'CC=CC'
p417
sa(dp418
g2
(dp419
g4
(lp420
(dp421
g7
g8
sg9
g10
sa(dp422
g7
g12
sg9
g10
sa(dp423
g7
g10
sg9
g10
sa(dp424
g7
g42
sg9
g10
sa(dp425
g7
g52
sg9
g10
sasg13
(lp426
(dp427
g16
g8
sg17
g12
sa(dp428
g16
g12
sg17
g10
sa(dp429
g16
g10
sg17
g42
sa(dp430
g16
g42
sg17
g52
sassg18
S'2635'
p431
sg20
S'27'
p432
sg21
S'C=CC=CC'
p433
sa(dp434
g2
(dp435
g4
(lp436
(dp437
g7
g8
sg9
g10
sa(dp438
g7
g12
sg9
g10
sa(dp439
g7
g10
sg9
g10
sa(dp440
g7
g42
sg9
g10
sa(dp441
g7
g52
sg9
g10
sa(dp442
g7
g64
sg9
g10
sasg13
(lp443
(dp444
g16
g8
sg17
g12
sa(dp445
g16
g8
sg17
g64
sa(dp446
g16
g12
sg17
g10
sa(dp447
g16
g10
sg17
g42
sa(dp448
g16
g42
sg17
g52
sassg18
S'2412'
p449
sg20
S'28'
p450
sg21
S'C=CC=CC=C'
p451
sa(dp452
g2
(dp453
g4
(lp454
(dp455
g7
g8
sg9
g10
sa(dp456
g7
g12
sg9
g10
sa(dp457
g7
g10
sg9
g10
sa(dp458
g7
g42
sg9
g10
sa(dp459
g7
g52
sg9
g10
sa(dp460
g7
g64
sg9
g10
sasg13
(lp461
(dp462
g16
g8
sg17
g12
sa(dp463
g16
g12
sg17
g10
sa(dp464
g16
g10
sg17
g42
sa(dp465
g16
g42
sg17
g52
sa(dp466
g16
g52
sg17
g64
sassg18
S'2568'
p467
sg20
S'29'
p468
sg21
S'CC=CC=CC'
p469
sa(dp470
g2
(dp471
g4
(lp472
(dp473
g7
g8
sg9
g10
sa(dp474
g7
g12
sg9
g10
sa(dp475
g7
g10
sg9
g10
sa(dp476
g7
g42
sg9
g10
sa(dp477
g7
g52
sg9
g10
sa(dp478
g7
g64
sg9
g10
sasg13
(lp479
(dp480
g16
g8
sg17
g12
sa(dp481
g16
g8
sg17
g64
sa(dp482
g16
g12
sg17
g10
sa(dp483
g16
g10
sg17
g42
sa(dp484
g16
g42
sg17
g52
sa(dp485
g16
g52
sg17
g64
sassg18
S'2325'
p486
sg20
S'30'
p487
sg21
S'C1=CC=CC=C1'
p488
sa(dp489
g2
(dp490
g4
(lp491
(dp492
g7
g8
sg9
g10
sa(dp493
g7
g12
sg9
g10
sa(dp494
g7
g10
sg9
g10
sa(dp495
g7
g42
sg9
g10
sa(dp496
g7
g52
sg9
g10
sa(dp497
g7
g64
sg9
g10
sa(dp498
g7
g78
sg9
g10
sasg13
(lp499
(dp500
g16
g8
sg17
g12
sa(dp501
g16
g12
sg17
g10
sa(dp502
g16
g10
sg17
g42
sa(dp503
g16
g42
sg17
g52
sa(dp504
g16
g52
sg17
g64
sa(dp505
g16
g64
sg17
g78
sassg18
S'2277'
p506
sg20
S'31'
p507
sg21
S'C=CC=CC=CC'
p508
sa.