(lp0
(dp1
S'graph'
p2
(dp3
S'nodes'
p4
(lp5
(dp6
S'name'
p7
S'0'
p8
sS'value'
p9
S'0'
p10
sa(dp11
g7
S'1'
p12
sg9
S'1'
p13
sasS'links'
p14
(lp15
(dp16
S'source'
p17
g8
sS'target'
p18
g12
sassS'support'
p19
S'3'
p20
sS'gid'
p21
g12
sa(dp22
g2
(dp23
g4
(lp24
(dp25
g7
g8
sg9
S'0'
p26
sa(dp27
g7
g12
sg9
S'1'
p28
sa(dp29
g7
S'2'
p30
sg9
S'2'
p31
sasg14
(lp32
(dp33
g17
g8
sg18
g12
sa(dp34
g17
g12
sg18
g30
sassg19
g20
sg21
g30
sa(dp35
g2
(dp36
g4
(lp37
(dp38
g7
g8
sg9
S'3'
p39
sa(dp40
g7
g12
sg9
S'6'
p41
sasg14
(lp42
(dp43
g17
g8
sg18
g12
sassg19
g20
sg21
g20
sa(dp44
g2
(dp45
g4
(lp46
(dp47
g7
g8
sg9
S'0'
p48
sa(dp49
g7
g12
sg9
S'1'
p50
sasg14
(lp51
(dp52
g17
g8
sg18
g12
sassg19
g20
sg21
S'4'
p53
sa(dp54
g2
(dp55
g4
(lp56
(dp57
g7
g8
sg9
S'2'
p58
sa(dp59
g7
g12
sg9
S'3'
p60
sasg14
(lp61
(dp62
g17
g8
sg18
g12
sassg19
g20
sg21
S'5'
p63
sa(dp64
g2
(dp65
g4
(lp66
(dp67
g7
g8
sg9
S'2'
p68
sa(dp69
g7
g12
sg9
S'3'
p70
sa(dp71
g7
g30
sg9
S'6'
p72
sasg14
(lp73
(dp74
g17
g8
sg18
g12
sa(dp75
g17
g12
sg18
g30
sassg19
g20
sg21
S'6'
p76
sa(dp77
g2
(dp78
g4
(lp79
(dp80
g7
g8
sg9
S'2'
p81
sa(dp82
g7
g12
sg9
S'7'
p83
sasg14
(lp84
(dp85
g17
g8
sg18
g12
sassg19
g20
sg21
S'7'
p86
sa(dp87
g2
(dp88
g4
(lp89
(dp90
g7
g8
sg9
S'2'
p91
sa(dp92
g7
g12
sg9
S'7'
p93
sa(dp94
g7
g30
sg9
S'2'
p95
sasg14
(lp96
(dp97
g17
g8
sg18
g12
sa(dp98
g17
g12
sg18
g30
sassg19
g20
sg21
S'8'
p99
sa(dp100
g2
(dp101
g4
(lp102
(dp103
g7
g8
sg9
S'1'
p104
sa(dp105
g7
g12
sg9
S'2'
p106
sasg14
(lp107
(dp108
g17
g8
sg18
g12
sassg19
g63
sg21
S'9'
p109
sa(dp110
g2
(dp111
g4
(lp112
(dp113
g7
g8
sg9
S'1'
p114
sa(dp115
g7
g12
sg9
S'3'
p116
sasg14
(lp117
(dp118
g17
g8
sg18
g12
sassg19
g20
sg21
S'10'
p119
sa(dp120
g2
(dp121
g4
(lp122
(dp123
g7
g8
sg9
S'1'
p124
sa(dp125
g7
g12
sg9
S'3'
p126
sa(dp127
g7
g30
sg9
S'6'
p128
sasg14
(lp129
(dp130
g17
g8
sg18
g12
sa(dp131
g17
g12
sg18
g30
sassg19
g20
sg21
S'11'
p132
sa(dp133
g2
(dp134
g4
(lp135
(dp136
g7
g8
sg9
S'1'
p137
sa(dp138
g7
g12
sg9
S'3'
p139
sa(dp140
g7
g30
sg9
S'2'
p141
sasg14
(lp142
(dp143
g17
g8
sg18
g12
sa(dp144
g17
g12
sg18
g30
sassg19
g20
sg21
S'12'
p145
sa(dp146
g2
(dp147
g4
(lp148
(dp149
g7
g8
sg9
S'1'
p150
sa(dp151
g7
g12
sg9
S'3'
p152
sa(dp153
g7
g30
sg9
S'2'
p154
sa(dp155
g7
g20
sg9
S'6'
p156
sasg14
(lp157
(dp158
g17
g8
sg18
g12
sa(dp159
g17
g12
sg18
g30
sa(dp160
g17
g12
sg18
g20
sassg19
g20
sg21
S'13'
p161
sa(dp162
g2
(dp163
g4
(lp164
(dp165
g7
g8
sg9
S'0'
p166
sa(dp167
g7
g12
sg9
S'2'
p168
sasg14
(lp169
(dp170
g17
g8
sg18
g12
sassg19
g20
sg21
S'14'
p171
sa(dp172
g2
(dp173
g4
(lp174
(dp175
g7
g8
sg9
S'0'
p176
sa(dp177
g7
g12
sg9
S'2'
p178
sa(dp179
g7
g30
sg9
S'1'
p180
sasg14
(lp181
(dp182
g17
g8
sg18
g12
sa(dp183
g17
g8
sg18
g30
sassg19
g20
sg21
S'15'
p184
sa(dp185
g2
(dp186
g4
(lp187
(dp188
g7
g8
sg9
S'2'
p189
sa(dp190
g7
g12
sg9
S'7'
p191
sasg14
(lp192
(dp193
g17
g8
sg18
g12
sassg19
g20
sg21
S'16'
p194
sa(dp195
g2
(dp196
g4
(lp197
(dp198
g7
g8
sg9
S'2'
p199
sa(dp200
g7
g12
sg9
S'2'
p201
sasg14
(lp202
(dp203
g17
g8
sg18
g12
sassg19
g20
sg21
S'17'
p204
sa(dp205
g2
(dp206
g4
(lp207
(dp208
g7
g8
sg9
S'2'
p209
sa(dp210
g7
g12
sg9
S'2'
p211
sa(dp212
g7
g30
sg9
S'7'
p213
sasg14
(lp214
(dp215
g17
g8
sg18
g12
sa(dp216
g17
g12
sg18
g30
sassg19
g20
sg21
S'18'
p217
sa(dp218
g2
(dp219
g4
(lp220
(dp221
g7
g8
sg9
S'2'
p222
sa(dp223
g7
g12
sg9
S'2'
p224
sa(dp225
g7
g30
sg9
S'7'
p226
sasg14
(lp227
(dp228
g17
g8
sg18
g12
sa(dp229
g17
g12
sg18
g30
sassg19
g20
sg21
S'19'
p230
sa(dp231
g2
(dp232
g4
(lp233
(dp234
g7
g8
sg9
S'2'
p235
sa(dp236
g7
g12
sg9
S'2'
p237
sa(dp238
g7
g30
sg9
S'7'
p239
sasg14
(lp240
(dp241
g17
g8
sg18
g12
sa(dp242
g17
g8
sg18
g30
sa(dp243
g17
g12
sg18
g30
sassg19
g20
sg21
S'20'
p244
sa.